
Software_ontwikkeling_opdracht.elf:     file format elf32-littlearm

Sections:
Idx Name          Size      VMA       LMA       File off  Algn
  0 .isr_vector   00000188  08000000  08000000  00010000  2**0
                  CONTENTS, ALLOC, LOAD, READONLY, DATA
  1 .text         000015b4  08000188  08000188  00010188  2**2
                  CONTENTS, ALLOC, LOAD, READONLY, CODE
  2 .rodata       00000640  0800173c  0800173c  0001173c  2**2
                  CONTENTS, ALLOC, LOAD, READONLY, DATA
  3 .init_array   00000004  08001d7c  08001d7c  00011d7c  2**2
                  CONTENTS, ALLOC, LOAD, DATA
  4 .fini_array   00000004  08001d80  08001d80  00011d80  2**2
                  CONTENTS, ALLOC, LOAD, DATA
  5 .data         00000000  20000000  20000000  00011d84  2**0
                  CONTENTS, ALLOC, LOAD, DATA
  6 .ccmram       00000000  10000000  10000000  00011d84  2**0
                  CONTENTS
  7 .bss          00012d80  20000000  20000000  00020000  2**2
                  ALLOC
  8 ._user_heap_stack 00000400  20012d80  20012d80  00020000  2**0
                  ALLOC
  9 .ARM.attributes 00000030  00000000  00000000  00011d84  2**0
                  CONTENTS, READONLY
 10 .debug_info   00007e28  00000000  00000000  00011db4  2**0
                  CONTENTS, READONLY, DEBUGGING
 11 .debug_abbrev 000013ca  00000000  00000000  00019bdc  2**0
                  CONTENTS, READONLY, DEBUGGING
 12 .debug_aranges 000008b0  00000000  00000000  0001afa8  2**3
                  CONTENTS, READONLY, DEBUGGING
 13 .debug_ranges 000007e8  00000000  00000000  0001b858  2**3
                  CONTENTS, READONLY, DEBUGGING
 14 .debug_line   0000326f  00000000  00000000  0001c040  2**0
                  CONTENTS, READONLY, DEBUGGING
 15 .debug_str    00002e12  00000000  00000000  0001f2af  2**0
                  CONTENTS, READONLY, DEBUGGING
 16 .comment      0000007c  00000000  00000000  000220c1  2**0
                  CONTENTS, READONLY
 17 .debug_frame  00002520  00000000  00000000  00022140  2**2
                  CONTENTS, READONLY, DEBUGGING
 18 .stabstr      0000003f  00000000  00000000  00024660  2**0
                  CONTENTS, READONLY, DEBUGGING

Disassembly of section .text:

08000188 <__do_global_dtors_aux>:
 8000188:	b510      	push	{r4, lr}
 800018a:	4c05      	ldr	r4, [pc, #20]	; (80001a0 <__do_global_dtors_aux+0x18>)
 800018c:	7823      	ldrb	r3, [r4, #0]
 800018e:	b933      	cbnz	r3, 800019e <__do_global_dtors_aux+0x16>
 8000190:	4b04      	ldr	r3, [pc, #16]	; (80001a4 <__do_global_dtors_aux+0x1c>)
 8000192:	b113      	cbz	r3, 800019a <__do_global_dtors_aux+0x12>
 8000194:	4804      	ldr	r0, [pc, #16]	; (80001a8 <__do_global_dtors_aux+0x20>)
 8000196:	f3af 8000 	nop.w
 800019a:	2301      	movs	r3, #1
 800019c:	7023      	strb	r3, [r4, #0]
 800019e:	bd10      	pop	{r4, pc}
 80001a0:	20000000 	.word	0x20000000
 80001a4:	00000000 	.word	0x00000000
 80001a8:	08001724 	.word	0x08001724

080001ac <frame_dummy>:
 80001ac:	b508      	push	{r3, lr}
 80001ae:	4b03      	ldr	r3, [pc, #12]	; (80001bc <frame_dummy+0x10>)
 80001b0:	b11b      	cbz	r3, 80001ba <frame_dummy+0xe>
 80001b2:	4903      	ldr	r1, [pc, #12]	; (80001c0 <frame_dummy+0x14>)
 80001b4:	4803      	ldr	r0, [pc, #12]	; (80001c4 <frame_dummy+0x18>)
 80001b6:	f3af 8000 	nop.w
 80001ba:	bd08      	pop	{r3, pc}
 80001bc:	00000000 	.word	0x00000000
 80001c0:	20000004 	.word	0x20000004
 80001c4:	08001724 	.word	0x08001724

080001c8 <draw_bitmap>:
#include <stdio.h>
#include <stdlib.h>


//Bitmap function
void draw_bitmap (int x, int y) {
 80001c8:	b590      	push	{r4, r7, lr}
 80001ca:	f2ad 6d5c 	subw	sp, sp, #1628	; 0x65c
 80001ce:	af00      	add	r7, sp, #0
 80001d0:	1d3b      	adds	r3, r7, #4
 80001d2:	6018      	str	r0, [r3, #0]
 80001d4:	463b      	mov	r3, r7
 80001d6:	6019      	str	r1, [r3, #0]

//const int size = 50;

int bitmap [20][20] = {
 80001d8:	f107 0308 	add.w	r3, r7, #8
 80001dc:	4a26      	ldr	r2, [pc, #152]	; (8000278 <draw_bitmap+0xb0>)
 80001de:	4618      	mov	r0, r3
 80001e0:	4611      	mov	r1, r2
 80001e2:	f44f 63c8 	mov.w	r3, #1600	; 0x640
 80001e6:	461a      	mov	r2, r3
 80001e8:	f001 fa90 	bl	800170c <memcpy>
		0xff,0xff,0xff,0xff,0xff,0xff,0xff,0xff,0xff,0xff,0xff,0xff,0xff,0xff,0xff,0xff,0xff,0xff,0xff,0xff,0xff,0xff,0xff,0xff,0xff,0xff,0xff,0xff,0xff,0xff,0xff,0xff,0xff,0xff,0xff,0xff,0xff,0xff,0xff,0xff,0xff,0xff,0xff,0xff,0xff,0xff,0xff,0xff,0xff,0xff,0xff,0xff,0xff,0xff,0xff,0xff,0xff,0xff,0xff,0xff,0xff,0xff,0xff,0xff,0xff,0xff,0xff,0xff,0xff,0xff,0xff,0xff,0xff,0xff,0xff,0xff,0xff,0xff,0xff,0xff,0xff,0xff,0xff,0xff,0xff,0xff,0xff,0xff,0xff,0xff,0xff,0xff,0xff,0xff,0xff,0xff,0xff,0xff,0xff,0xff,0xff,0xff,0xff,0xff,0xff,0xff,0xff,0xff,0xff,0xff,0xff,0xff,0xff,0xff,0xff,0xff,0xff,0xff,0xff,0xff,0x00,0x80,0xff,0x00,0x80,0xff,0x00,0x80,0xff,0xff,0xff,0xff,0xff,0xff,0xff,0x00,0x80,0xff,0x00,0x80,0xff,0x00,0x80,0xff,0xff,0xff,0xff,0xff,0xff,0xff,0xff,0x00,0x00,0xff,0x00,0x00,0xff,0xff,0xff,0xff,0xff,0xff,0xff,0xff,0xff,0xff,0xff,0xff,0xff,0xff,0xff,0xff,0x00,0x00,0xff,0x00,0x00,0xff,0xff,0xff,0x00,0x80,0xff,0x00,0x80,0xff,0x00,0x80,0xff,0xff,0xff,0xff,0xff,0xff,0xff,0x00,0x80,0xff,0x00,0x80,0xff,0x00,0x80,0xff,0xff,0xff,0xff,0xff,0xff,0xff,0xff,0x00,0x00,0xff,0x00,0x00,0xff,0xff,0xff,0xff,0xff,0xff,0xff,0xff,0xff,0xff,0xff,0xff,0xff,0xff,0xff,0xff,0x00,0x00,0xff,0x00,0x00,0xff,0xff,0xff,0x00,0x80,0xff,0x00,0x80,0xff,0x00,0x80,0xff,0xff,0xff,0xff,0xff,0xff,0xff,0x00,0x80,0xff,0x00,0x80,0xff,0x00,0x80,0xff,0xff,0xff,0xff,0xff,0xff,0xff,0xff,0x00,0x00,0xff,0x00,0x00,0xff,0xff,0xff,0xff,0xff,0xff,0xff,0xff,0xff,0xff,0xff,0xff,0xff,0xff,0xff,0xff,0x00,0x00,0xff,0x00,0x00,0xff,0xff,0xff,0x00,0x80,0xff,0x00,0x80,0xff,0x00,0x80,0xff,0xff,0xff,0xff,0xff,0xff,0xff,0x00,0x80,0xff,0x00,0x80,0xff,0x00,0x80,0xff,0xff,0xff,0xff,0xff,0xff,0xff,0xff,0x00,0x00,0xff,0x00,0x00,0xff,0xff,0xff,0xff,0xff,0xff,0xff,0xff,0xff,0xff,0xff,0xff,0xff,0xff,0xff,0xff,0x00,0x00,0xff,0x00,0x00,0xff,0xff,0xff,0x00,0x80,0xff,0x00,0x80,0xff,0x00,0x80,0xff,0xff,0xff,0xff,0xff,0xff,0xff,0x00,0x80,0xff,0x00,0x80,0xff,0x00,0x80,0xff,0xff,0xff,0xff,0xff,0xff,0xff,0xff,0x00,0x00,0xff,0x00,0x00,0xff,0xff,0xff,0xff,0xff,0xff,0xff,0xff,0xff,0xff,0xff,0xff,0xff,0xff,0xff,0xff,0x00,0x00,0xff,0x00,0x00,0xff,0xff,0xff,0x00,0x80,0xff,0x00,0x80,0xff,0x00,0x80,0xff,0xff,0xff,0xff,0xff,0xff,0xff,0x00,0x80,0xff,0x00,0x80,0xff,0x00,0x80,0xff,0xff,0xff,0xff,0xff,0xff,0xff,0xff,0x00,0x00,0xff,0x00,0x00,0xff,0xff,0xff,0xff,0xff,0xff,0xff,0xff,0xff,0xff,0xff,0xff,0xff,0xff,0xff,0xff,0x00,0x00,0xff,0x00,0x00,0xff,0xff,0xff,0x00,0x80,0xff,0x00,0x80,0xff,0x00,0x80,0xff,0xff,0xff,0xff,0xff,0xff,0xff,0x00,0x80,0xff,0x00,0x80,0xff,0x00,0x80,0xff,0xff,0xff,0xff,0xff,0xff,0xff,0xff,0x00,0x00,0xff,0x00,0x00,0xff,0xff,0xff,0xff,0xff,0xff,0xff,0xff,0xff,0xff,0xff,0xff,0xff,0xff,0xff,0xff,0x00,0x00,0xff,0x00,0x00,0xff,0xff,0xff,0x00,0x80,0xff,0x00,0x80,0xff,0x00,0x80,0xff,0xff,0xff,0xff,0xff,0xff,0xff,0xff,0xff,0xff,0xff,0xff,0xff,0xff,0xff,0xff,0xff,0xff,0xff,0xff,0xff,0xff,0xff,0x00,0x00,0xff,0x00,0x00,0xff,0xff,0xff,0xff,0xff,0xff,0xff,0xff,0xff,0xff,0xff,0xff,0xff,0xff,0xff,0xff,0x00,0x00,0xff,0x00,0x00,0xff,0xff,0xff,0x00,0x80,0xff,0x00,0x80,0xff,0x00,0x80,0xff,0xff,0xff,0xff,0xff,0xff,0xff,0xff,0xff,0xff,0xff,0xff,0xff,0xff,0xff,0xff,0xff,0xff,0xff,0xff,0xff,0xff,0xff,0x00,0x00,0xff,0x00,0x00,0xff,0xff,0xff,0xff,0xff,0xff,0xff,0xff,0xff,0xff,0xff,0xff,0xff,0xff,0xff,0xff,0x00,0x00,0xff,0x00,0x00,0xff,0xff,0xff,0x00,0x80,0xff,0x00,0x80,0xff,0x00,0x80,0xff,0xff,0xff,0xff,0xff,0xff,0xff,0x00,0x80,0xff,0x00,0x80,0xff,0x00,0x80,0xff,0xff,0xff,0xff,0xff,0xff,0xff,0xff,0x00,0x00,0xff,0x00,0x00,0xff,0x00,0x00,0xff,0xff,0xff,0xff,0xff,0xff,0xff,0xff,0xff,0xff,0x00,0x00,0xff,0x00,0x00,0xff,0x00,0x00,0xff,0xff,0xff,0x00,0x80,0xff,0x00,0x80,0xff,0x00,0x80,0xff,0xff,0xff,0xff,0xff,0xff,0xff,0x00,0x80,0xff,0x00,0x80,0xff,0x00,0x80,0xff,0xff,0xff,0xff,0xff,0xff,0xff,0xff,0xff,0xff,0xff,0x00,0x00,0xff,0x00,0x00,0xff,0x00,0x00,0xff,0x00,0x00,0xff,0x00,0x00,0xff,0x00,0x00,0xff,0x00,0x00,0xff,0xff,0xff,0xff,0xff,0xff,0x00,0x80,0xff,0x00,0x80,0xff,0x00,0x80,0xff,0xff,0xff,0xff,0xff,0xff,0xff,0x00,0x80,0xff,0x00,0x80,0xff,0x00,0x80,0xff,0xff,0xff,0xff,0xff,0xff,0xff,0xff,0xff,0xff,0xff,0xff,0xff,0xff,0x00,0x00,0xff,0x00,0x00,0xff,0x00,0x00,0xff,0x00,0x00,0xff,0xff,0xff,0xff,0xff,0xff,0xff,0xff,0xff,0xff,0xff,0xff,0x00,0x80,0xff,0x00,0x80,0xff,0x00,0x80,0xff,0xff,0xff,0xff,0xff,0xff,0xff,0x00,0x80,0xff,0x00,0x80,0xff,0x00,0x80,0xff,0xff,0xff,0xff,0xff,0xff,0xff,0xff,0xff,0xff,0xff,0xff,0xff,0xff,0xff,0xff,0xff,0xff,0xff,0xff,0xff,0xff,0xff,0xff,0xff,0xff,0xff,0xff,0xff,0xff,0xff,0xff,0xff,0xff,0xff,0xff,0xff,0x00,0x80,0xff,0x00,0x80,0xff,0x00,0x80,0xff,0xff,0xff,0xff,0xff,0xff,0xff,0x00,0x80,0xff,0x00,0x80,0xff,0x00,0x80,0xff,0xff,0xff,0xff,0xff,0xff,0xff,0xff,0xff,0xff,0xff,0xff,0xff,0xff,0xff,0xff,0xff,0xff,0xff,0xff,0xff,0xff,0xff,0xff,0xff,0xff,0xff,0xff,0xff,0xff,0xff,0xff,0xff,0xff,0xff,0xff,0xff,0x00,0x80,0xff,0x00,0x80,0xff,0x00,0x80,0xff,0xff,0xff,0xff,0xff,0xff,0xff,0x00,0x80,0xff,0x00,0x80,0xff,0x00,0x80,0xff,0xff,0xff,0xff,0xff,0xff,0xff,0xff,0xff,0xff,0xff,0xff,0xff,0xff,0xff,0xff,0xff,0xff,0xff,0xff,0xff,0xff,0xff,0xff,0xff,0xff,0xff,0xff,0xff,0xff,0xff,0xff,0xff,0xff,0xff,0xff,0xff,0x00,0x80,0xff,0x00,0x80,0xff,0x00,0x80,0xff,0xff,0xff,0xff,0xff,0xff,0xff,0x00,0x80,0xff,0x00,0x80,0xff,0x00,0x80,0xff,0xff,0xff,0xff,0xff,0xff,0xff,0xff,0xff,0xff,0xff,0xff,0xff,0xff,0xff,0xff,0xff,0xff,0xff,0xff,0xff,0xff,0xff,0xff,0xff,0xff,0xff,0xff,0xff,0xff,0xff,0xff,0xff,0xff,0xff,0xff,0xff,0xff,0xff,0xff,0xff,0xff,0xff,0xff,0xff,0xff,0xff,0xff,0xff,0xff,0xff,0xff,0xff,0xff,0xff,0xff,0xff,0xff,0xff,0xff,0xff,0xff,0xff,0xff,0xff,0xff,0xff,0xff,0xff,0xff,0xff,0xff,0xff,0xff,0xff,0xff,0xff,0xff,0xff,0xff,0xff,0xff,0xff,0xff,0xff,0xff,0xff,0xff,0xff,0xff,0xff,0xff,0xff,0xff,0xff,0xff,0xff,0xff,0xff,0xff,0xff,0xff,0xff,0xff,0xff,0xff,0xff,0xff,0xff,0xff,0xff,0xff,0xff,0xff,0xff,0xff,0xff,0xff,0xff,0xff,0xff,0xff,0xff,0xff,0xff,0xff,0xff,0xff,0xff,0xff,0xff,0xff,0xff,0xff,0xff,0xff,0xff,0xff,0xff,0xff,0xff,0xff,0xff,0xff,0xff,0xff,0xff,0xff,0xff,0xff,0xff,0xff,0xff,0xff,0xff,0xff,0xff
};
	for (int i=0; i<20; i++) {
 80001ec:	2300      	movs	r3, #0
 80001ee:	f8c7 3654 	str.w	r3, [r7, #1620]	; 0x654
 80001f2:	e037      	b.n	8000264 <draw_bitmap+0x9c>
		for (int j=0; j<20; j++) {
 80001f4:	2300      	movs	r3, #0
 80001f6:	f8c7 3650 	str.w	r3, [r7, #1616]	; 0x650
 80001fa:	e02a      	b.n	8000252 <draw_bitmap+0x8a>

			int x_pos = j + x;
 80001fc:	1d3b      	adds	r3, r7, #4
 80001fe:	f8d7 2650 	ldr.w	r2, [r7, #1616]	; 0x650
 8000202:	681b      	ldr	r3, [r3, #0]
 8000204:	4413      	add	r3, r2
 8000206:	f8c7 364c 	str.w	r3, [r7, #1612]	; 0x64c
			int y_pos = i + y;
 800020a:	463b      	mov	r3, r7
 800020c:	f8d7 2654 	ldr.w	r2, [r7, #1620]	; 0x654
 8000210:	681b      	ldr	r3, [r3, #0]
 8000212:	4413      	add	r3, r2
 8000214:	f8c7 3648 	str.w	r3, [r7, #1608]	; 0x648

			UB_VGA_SetPixel(x_pos, y_pos, bitmap[i][j]);
 8000218:	f8d7 364c 	ldr.w	r3, [r7, #1612]	; 0x64c
 800021c:	b298      	uxth	r0, r3
 800021e:	f8d7 3648 	ldr.w	r3, [r7, #1608]	; 0x648
 8000222:	b29c      	uxth	r4, r3
 8000224:	f107 0108 	add.w	r1, r7, #8
 8000228:	f8d7 2654 	ldr.w	r2, [r7, #1620]	; 0x654
 800022c:	4613      	mov	r3, r2
 800022e:	009b      	lsls	r3, r3, #2
 8000230:	4413      	add	r3, r2
 8000232:	009b      	lsls	r3, r3, #2
 8000234:	f8d7 2650 	ldr.w	r2, [r7, #1616]	; 0x650
 8000238:	4413      	add	r3, r2
 800023a:	f851 3023 	ldr.w	r3, [r1, r3, lsl #2]
 800023e:	b2db      	uxtb	r3, r3
 8000240:	461a      	mov	r2, r3
 8000242:	4621      	mov	r1, r4
 8000244:	f000 fef2 	bl	800102c <UB_VGA_SetPixel>
		for (int j=0; j<20; j++) {
 8000248:	f8d7 3650 	ldr.w	r3, [r7, #1616]	; 0x650
 800024c:	3301      	adds	r3, #1
 800024e:	f8c7 3650 	str.w	r3, [r7, #1616]	; 0x650
 8000252:	f8d7 3650 	ldr.w	r3, [r7, #1616]	; 0x650
 8000256:	2b13      	cmp	r3, #19
 8000258:	ddd0      	ble.n	80001fc <draw_bitmap+0x34>
	for (int i=0; i<20; i++) {
 800025a:	f8d7 3654 	ldr.w	r3, [r7, #1620]	; 0x654
 800025e:	3301      	adds	r3, #1
 8000260:	f8c7 3654 	str.w	r3, [r7, #1620]	; 0x654
 8000264:	f8d7 3654 	ldr.w	r3, [r7, #1620]	; 0x654
 8000268:	2b13      	cmp	r3, #19
 800026a:	ddc3      	ble.n	80001f4 <draw_bitmap+0x2c>
		}
	}
}
 800026c:	bf00      	nop
 800026e:	f207 675c 	addw	r7, r7, #1628	; 0x65c
 8000272:	46bd      	mov	sp, r7
 8000274:	bd90      	pop	{r4, r7, pc}
 8000276:	bf00      	nop
 8000278:	0800173c 	.word	0x0800173c

0800027c <NVIC_Init>:
  * @param  NVIC_InitStruct: pointer to a NVIC_InitTypeDef structure that contains
  *         the configuration information for the specified NVIC peripheral.
  * @retval None
  */
void NVIC_Init(NVIC_InitTypeDef* NVIC_InitStruct)
{
 800027c:	b480      	push	{r7}
 800027e:	b085      	sub	sp, #20
 8000280:	af00      	add	r7, sp, #0
 8000282:	6078      	str	r0, [r7, #4]
  uint8_t tmppriority = 0x00, tmppre = 0x00, tmpsub = 0x0F;
 8000284:	2300      	movs	r3, #0
 8000286:	73fb      	strb	r3, [r7, #15]
 8000288:	2300      	movs	r3, #0
 800028a:	73bb      	strb	r3, [r7, #14]
 800028c:	230f      	movs	r3, #15
 800028e:	737b      	strb	r3, [r7, #13]
  /* Check the parameters */
  assert_param(IS_FUNCTIONAL_STATE(NVIC_InitStruct->NVIC_IRQChannelCmd));
  assert_param(IS_NVIC_PREEMPTION_PRIORITY(NVIC_InitStruct->NVIC_IRQChannelPreemptionPriority));  
  assert_param(IS_NVIC_SUB_PRIORITY(NVIC_InitStruct->NVIC_IRQChannelSubPriority));
    
  if (NVIC_InitStruct->NVIC_IRQChannelCmd != DISABLE)
 8000290:	687b      	ldr	r3, [r7, #4]
 8000292:	78db      	ldrb	r3, [r3, #3]
 8000294:	2b00      	cmp	r3, #0
 8000296:	d039      	beq.n	800030c <NVIC_Init+0x90>
  {
    /* Compute the Corresponding IRQ Priority --------------------------------*/    
    tmppriority = (0x700 - ((SCB->AIRCR) & (uint32_t)0x700))>> 0x08;
 8000298:	4b27      	ldr	r3, [pc, #156]	; (8000338 <NVIC_Init+0xbc>)
 800029a:	68db      	ldr	r3, [r3, #12]
 800029c:	43db      	mvns	r3, r3
 800029e:	0a1b      	lsrs	r3, r3, #8
 80002a0:	b2db      	uxtb	r3, r3
 80002a2:	f003 0307 	and.w	r3, r3, #7
 80002a6:	73fb      	strb	r3, [r7, #15]
    tmppre = (0x4 - tmppriority);
 80002a8:	7bfb      	ldrb	r3, [r7, #15]
 80002aa:	f1c3 0304 	rsb	r3, r3, #4
 80002ae:	73bb      	strb	r3, [r7, #14]
    tmpsub = tmpsub >> tmppriority;
 80002b0:	7b7a      	ldrb	r2, [r7, #13]
 80002b2:	7bfb      	ldrb	r3, [r7, #15]
 80002b4:	fa42 f303 	asr.w	r3, r2, r3
 80002b8:	737b      	strb	r3, [r7, #13]

    tmppriority = NVIC_InitStruct->NVIC_IRQChannelPreemptionPriority << tmppre;
 80002ba:	687b      	ldr	r3, [r7, #4]
 80002bc:	785b      	ldrb	r3, [r3, #1]
 80002be:	461a      	mov	r2, r3
 80002c0:	7bbb      	ldrb	r3, [r7, #14]
 80002c2:	fa02 f303 	lsl.w	r3, r2, r3
 80002c6:	73fb      	strb	r3, [r7, #15]
    tmppriority |=  (uint8_t)(NVIC_InitStruct->NVIC_IRQChannelSubPriority & tmpsub);
 80002c8:	687b      	ldr	r3, [r7, #4]
 80002ca:	789a      	ldrb	r2, [r3, #2]
 80002cc:	7b7b      	ldrb	r3, [r7, #13]
 80002ce:	4013      	ands	r3, r2
 80002d0:	b2da      	uxtb	r2, r3
 80002d2:	7bfb      	ldrb	r3, [r7, #15]
 80002d4:	4313      	orrs	r3, r2
 80002d6:	73fb      	strb	r3, [r7, #15]
        
    tmppriority = tmppriority << 0x04;
 80002d8:	7bfb      	ldrb	r3, [r7, #15]
 80002da:	011b      	lsls	r3, r3, #4
 80002dc:	73fb      	strb	r3, [r7, #15]
        
    NVIC->IP[NVIC_InitStruct->NVIC_IRQChannel] = tmppriority;
 80002de:	4a17      	ldr	r2, [pc, #92]	; (800033c <NVIC_Init+0xc0>)
 80002e0:	687b      	ldr	r3, [r7, #4]
 80002e2:	781b      	ldrb	r3, [r3, #0]
 80002e4:	4413      	add	r3, r2
 80002e6:	7bfa      	ldrb	r2, [r7, #15]
 80002e8:	f883 2300 	strb.w	r2, [r3, #768]	; 0x300
    
    /* Enable the Selected IRQ Channels --------------------------------------*/
    NVIC->ISER[NVIC_InitStruct->NVIC_IRQChannel >> 0x05] =
 80002ec:	4a13      	ldr	r2, [pc, #76]	; (800033c <NVIC_Init+0xc0>)
 80002ee:	687b      	ldr	r3, [r7, #4]
 80002f0:	781b      	ldrb	r3, [r3, #0]
 80002f2:	095b      	lsrs	r3, r3, #5
 80002f4:	b2db      	uxtb	r3, r3
 80002f6:	4618      	mov	r0, r3
      (uint32_t)0x01 << (NVIC_InitStruct->NVIC_IRQChannel & (uint8_t)0x1F);
 80002f8:	687b      	ldr	r3, [r7, #4]
 80002fa:	781b      	ldrb	r3, [r3, #0]
 80002fc:	f003 031f 	and.w	r3, r3, #31
 8000300:	2101      	movs	r1, #1
 8000302:	fa01 f303 	lsl.w	r3, r1, r3
    NVIC->ISER[NVIC_InitStruct->NVIC_IRQChannel >> 0x05] =
 8000306:	f842 3020 	str.w	r3, [r2, r0, lsl #2]
  {
    /* Disable the Selected IRQ Channels -------------------------------------*/
    NVIC->ICER[NVIC_InitStruct->NVIC_IRQChannel >> 0x05] =
      (uint32_t)0x01 << (NVIC_InitStruct->NVIC_IRQChannel & (uint8_t)0x1F);
  }
}
 800030a:	e00f      	b.n	800032c <NVIC_Init+0xb0>
    NVIC->ICER[NVIC_InitStruct->NVIC_IRQChannel >> 0x05] =
 800030c:	490b      	ldr	r1, [pc, #44]	; (800033c <NVIC_Init+0xc0>)
 800030e:	687b      	ldr	r3, [r7, #4]
 8000310:	781b      	ldrb	r3, [r3, #0]
 8000312:	095b      	lsrs	r3, r3, #5
 8000314:	b2db      	uxtb	r3, r3
 8000316:	4618      	mov	r0, r3
      (uint32_t)0x01 << (NVIC_InitStruct->NVIC_IRQChannel & (uint8_t)0x1F);
 8000318:	687b      	ldr	r3, [r7, #4]
 800031a:	781b      	ldrb	r3, [r3, #0]
 800031c:	f003 031f 	and.w	r3, r3, #31
 8000320:	2201      	movs	r2, #1
 8000322:	409a      	lsls	r2, r3
    NVIC->ICER[NVIC_InitStruct->NVIC_IRQChannel >> 0x05] =
 8000324:	f100 0320 	add.w	r3, r0, #32
 8000328:	f841 2023 	str.w	r2, [r1, r3, lsl #2]
}
 800032c:	bf00      	nop
 800032e:	3714      	adds	r7, #20
 8000330:	46bd      	mov	sp, r7
 8000332:	f85d 7b04 	ldr.w	r7, [sp], #4
 8000336:	4770      	bx	lr
 8000338:	e000ed00 	.word	0xe000ed00
 800033c:	e000e100 	.word	0xe000e100

08000340 <DMA_DeInit>:
  * @param  DMAy_Streamx: where y can be 1 or 2 to select the DMA and x can be 0
  *         to 7 to select the DMA Stream.
  * @retval None
  */
void DMA_DeInit(DMA_Stream_TypeDef* DMAy_Streamx)
{
 8000340:	b480      	push	{r7}
 8000342:	b083      	sub	sp, #12
 8000344:	af00      	add	r7, sp, #0
 8000346:	6078      	str	r0, [r7, #4]
  /* Check the parameters */
  assert_param(IS_DMA_ALL_PERIPH(DMAy_Streamx));

  /* Disable the selected DMAy Streamx */
  DMAy_Streamx->CR &= ~((uint32_t)DMA_SxCR_EN);
 8000348:	687b      	ldr	r3, [r7, #4]
 800034a:	681b      	ldr	r3, [r3, #0]
 800034c:	f023 0201 	bic.w	r2, r3, #1
 8000350:	687b      	ldr	r3, [r7, #4]
 8000352:	601a      	str	r2, [r3, #0]

  /* Reset DMAy Streamx control register */
  DMAy_Streamx->CR  = 0;
 8000354:	687b      	ldr	r3, [r7, #4]
 8000356:	2200      	movs	r2, #0
 8000358:	601a      	str	r2, [r3, #0]
  
  /* Reset DMAy Streamx Number of Data to Transfer register */
  DMAy_Streamx->NDTR = 0;
 800035a:	687b      	ldr	r3, [r7, #4]
 800035c:	2200      	movs	r2, #0
 800035e:	605a      	str	r2, [r3, #4]
  
  /* Reset DMAy Streamx peripheral address register */
  DMAy_Streamx->PAR  = 0;
 8000360:	687b      	ldr	r3, [r7, #4]
 8000362:	2200      	movs	r2, #0
 8000364:	609a      	str	r2, [r3, #8]
  
  /* Reset DMAy Streamx memory 0 address register */
  DMAy_Streamx->M0AR = 0;
 8000366:	687b      	ldr	r3, [r7, #4]
 8000368:	2200      	movs	r2, #0
 800036a:	60da      	str	r2, [r3, #12]

  /* Reset DMAy Streamx memory 1 address register */
  DMAy_Streamx->M1AR = 0;
 800036c:	687b      	ldr	r3, [r7, #4]
 800036e:	2200      	movs	r2, #0
 8000370:	611a      	str	r2, [r3, #16]

  /* Reset DMAy Streamx FIFO control register */
  DMAy_Streamx->FCR = (uint32_t)0x00000021; 
 8000372:	687b      	ldr	r3, [r7, #4]
 8000374:	2221      	movs	r2, #33	; 0x21
 8000376:	615a      	str	r2, [r3, #20]

  /* Reset interrupt pending bits for the selected stream */
  if (DMAy_Streamx == DMA1_Stream0)
 8000378:	687b      	ldr	r3, [r7, #4]
 800037a:	4a46      	ldr	r2, [pc, #280]	; (8000494 <DMA_DeInit+0x154>)
 800037c:	4293      	cmp	r3, r2
 800037e:	d103      	bne.n	8000388 <DMA_DeInit+0x48>
  {
    /* Reset interrupt pending bits for DMA1 Stream0 */
    DMA1->LIFCR = DMA_Stream0_IT_MASK;
 8000380:	4b45      	ldr	r3, [pc, #276]	; (8000498 <DMA_DeInit+0x158>)
 8000382:	223d      	movs	r2, #61	; 0x3d
 8000384:	609a      	str	r2, [r3, #8]
    {
      /* Reset interrupt pending bits for DMA2 Stream7 */
      DMA2->HIFCR = DMA_Stream7_IT_MASK;
    }
  }
}
 8000386:	e07e      	b.n	8000486 <DMA_DeInit+0x146>
  else if (DMAy_Streamx == DMA1_Stream1)
 8000388:	687b      	ldr	r3, [r7, #4]
 800038a:	4a44      	ldr	r2, [pc, #272]	; (800049c <DMA_DeInit+0x15c>)
 800038c:	4293      	cmp	r3, r2
 800038e:	d104      	bne.n	800039a <DMA_DeInit+0x5a>
    DMA1->LIFCR = DMA_Stream1_IT_MASK;
 8000390:	4b41      	ldr	r3, [pc, #260]	; (8000498 <DMA_DeInit+0x158>)
 8000392:	f44f 6274 	mov.w	r2, #3904	; 0xf40
 8000396:	609a      	str	r2, [r3, #8]
}
 8000398:	e075      	b.n	8000486 <DMA_DeInit+0x146>
  else if (DMAy_Streamx == DMA1_Stream2)
 800039a:	687b      	ldr	r3, [r7, #4]
 800039c:	4a40      	ldr	r2, [pc, #256]	; (80004a0 <DMA_DeInit+0x160>)
 800039e:	4293      	cmp	r3, r2
 80003a0:	d104      	bne.n	80003ac <DMA_DeInit+0x6c>
    DMA1->LIFCR = DMA_Stream2_IT_MASK;
 80003a2:	4b3d      	ldr	r3, [pc, #244]	; (8000498 <DMA_DeInit+0x158>)
 80003a4:	f44f 1274 	mov.w	r2, #3997696	; 0x3d0000
 80003a8:	609a      	str	r2, [r3, #8]
}
 80003aa:	e06c      	b.n	8000486 <DMA_DeInit+0x146>
  else if (DMAy_Streamx == DMA1_Stream3)
 80003ac:	687b      	ldr	r3, [r7, #4]
 80003ae:	4a3d      	ldr	r2, [pc, #244]	; (80004a4 <DMA_DeInit+0x164>)
 80003b0:	4293      	cmp	r3, r2
 80003b2:	d104      	bne.n	80003be <DMA_DeInit+0x7e>
    DMA1->LIFCR = DMA_Stream3_IT_MASK;
 80003b4:	4b38      	ldr	r3, [pc, #224]	; (8000498 <DMA_DeInit+0x158>)
 80003b6:	f04f 6274 	mov.w	r2, #255852544	; 0xf400000
 80003ba:	609a      	str	r2, [r3, #8]
}
 80003bc:	e063      	b.n	8000486 <DMA_DeInit+0x146>
  else if (DMAy_Streamx == DMA1_Stream4)
 80003be:	687b      	ldr	r3, [r7, #4]
 80003c0:	4a39      	ldr	r2, [pc, #228]	; (80004a8 <DMA_DeInit+0x168>)
 80003c2:	4293      	cmp	r3, r2
 80003c4:	d103      	bne.n	80003ce <DMA_DeInit+0x8e>
    DMA1->HIFCR = DMA_Stream4_IT_MASK;
 80003c6:	4b34      	ldr	r3, [pc, #208]	; (8000498 <DMA_DeInit+0x158>)
 80003c8:	4a38      	ldr	r2, [pc, #224]	; (80004ac <DMA_DeInit+0x16c>)
 80003ca:	60da      	str	r2, [r3, #12]
}
 80003cc:	e05b      	b.n	8000486 <DMA_DeInit+0x146>
  else if (DMAy_Streamx == DMA1_Stream5)
 80003ce:	687b      	ldr	r3, [r7, #4]
 80003d0:	4a37      	ldr	r2, [pc, #220]	; (80004b0 <DMA_DeInit+0x170>)
 80003d2:	4293      	cmp	r3, r2
 80003d4:	d103      	bne.n	80003de <DMA_DeInit+0x9e>
    DMA1->HIFCR = DMA_Stream5_IT_MASK;
 80003d6:	4b30      	ldr	r3, [pc, #192]	; (8000498 <DMA_DeInit+0x158>)
 80003d8:	4a36      	ldr	r2, [pc, #216]	; (80004b4 <DMA_DeInit+0x174>)
 80003da:	60da      	str	r2, [r3, #12]
}
 80003dc:	e053      	b.n	8000486 <DMA_DeInit+0x146>
  else if (DMAy_Streamx == DMA1_Stream6)
 80003de:	687b      	ldr	r3, [r7, #4]
 80003e0:	4a35      	ldr	r2, [pc, #212]	; (80004b8 <DMA_DeInit+0x178>)
 80003e2:	4293      	cmp	r3, r2
 80003e4:	d103      	bne.n	80003ee <DMA_DeInit+0xae>
    DMA1->HIFCR = (uint32_t)DMA_Stream6_IT_MASK;
 80003e6:	4b2c      	ldr	r3, [pc, #176]	; (8000498 <DMA_DeInit+0x158>)
 80003e8:	4a34      	ldr	r2, [pc, #208]	; (80004bc <DMA_DeInit+0x17c>)
 80003ea:	60da      	str	r2, [r3, #12]
}
 80003ec:	e04b      	b.n	8000486 <DMA_DeInit+0x146>
  else if (DMAy_Streamx == DMA1_Stream7)
 80003ee:	687b      	ldr	r3, [r7, #4]
 80003f0:	4a33      	ldr	r2, [pc, #204]	; (80004c0 <DMA_DeInit+0x180>)
 80003f2:	4293      	cmp	r3, r2
 80003f4:	d104      	bne.n	8000400 <DMA_DeInit+0xc0>
    DMA1->HIFCR = DMA_Stream7_IT_MASK;
 80003f6:	4b28      	ldr	r3, [pc, #160]	; (8000498 <DMA_DeInit+0x158>)
 80003f8:	f04f 523d 	mov.w	r2, #792723456	; 0x2f400000
 80003fc:	60da      	str	r2, [r3, #12]
}
 80003fe:	e042      	b.n	8000486 <DMA_DeInit+0x146>
  else if (DMAy_Streamx == DMA2_Stream0)
 8000400:	687b      	ldr	r3, [r7, #4]
 8000402:	4a30      	ldr	r2, [pc, #192]	; (80004c4 <DMA_DeInit+0x184>)
 8000404:	4293      	cmp	r3, r2
 8000406:	d103      	bne.n	8000410 <DMA_DeInit+0xd0>
    DMA2->LIFCR = DMA_Stream0_IT_MASK;
 8000408:	4b2f      	ldr	r3, [pc, #188]	; (80004c8 <DMA_DeInit+0x188>)
 800040a:	223d      	movs	r2, #61	; 0x3d
 800040c:	609a      	str	r2, [r3, #8]
}
 800040e:	e03a      	b.n	8000486 <DMA_DeInit+0x146>
  else if (DMAy_Streamx == DMA2_Stream1)
 8000410:	687b      	ldr	r3, [r7, #4]
 8000412:	4a2e      	ldr	r2, [pc, #184]	; (80004cc <DMA_DeInit+0x18c>)
 8000414:	4293      	cmp	r3, r2
 8000416:	d104      	bne.n	8000422 <DMA_DeInit+0xe2>
    DMA2->LIFCR = DMA_Stream1_IT_MASK;
 8000418:	4b2b      	ldr	r3, [pc, #172]	; (80004c8 <DMA_DeInit+0x188>)
 800041a:	f44f 6274 	mov.w	r2, #3904	; 0xf40
 800041e:	609a      	str	r2, [r3, #8]
}
 8000420:	e031      	b.n	8000486 <DMA_DeInit+0x146>
  else if (DMAy_Streamx == DMA2_Stream2)
 8000422:	687b      	ldr	r3, [r7, #4]
 8000424:	4a2a      	ldr	r2, [pc, #168]	; (80004d0 <DMA_DeInit+0x190>)
 8000426:	4293      	cmp	r3, r2
 8000428:	d104      	bne.n	8000434 <DMA_DeInit+0xf4>
    DMA2->LIFCR = DMA_Stream2_IT_MASK;
 800042a:	4b27      	ldr	r3, [pc, #156]	; (80004c8 <DMA_DeInit+0x188>)
 800042c:	f44f 1274 	mov.w	r2, #3997696	; 0x3d0000
 8000430:	609a      	str	r2, [r3, #8]
}
 8000432:	e028      	b.n	8000486 <DMA_DeInit+0x146>
  else if (DMAy_Streamx == DMA2_Stream3)
 8000434:	687b      	ldr	r3, [r7, #4]
 8000436:	4a27      	ldr	r2, [pc, #156]	; (80004d4 <DMA_DeInit+0x194>)
 8000438:	4293      	cmp	r3, r2
 800043a:	d104      	bne.n	8000446 <DMA_DeInit+0x106>
    DMA2->LIFCR = DMA_Stream3_IT_MASK;
 800043c:	4b22      	ldr	r3, [pc, #136]	; (80004c8 <DMA_DeInit+0x188>)
 800043e:	f04f 6274 	mov.w	r2, #255852544	; 0xf400000
 8000442:	609a      	str	r2, [r3, #8]
}
 8000444:	e01f      	b.n	8000486 <DMA_DeInit+0x146>
  else if (DMAy_Streamx == DMA2_Stream4)
 8000446:	687b      	ldr	r3, [r7, #4]
 8000448:	4a23      	ldr	r2, [pc, #140]	; (80004d8 <DMA_DeInit+0x198>)
 800044a:	4293      	cmp	r3, r2
 800044c:	d103      	bne.n	8000456 <DMA_DeInit+0x116>
    DMA2->HIFCR = DMA_Stream4_IT_MASK;
 800044e:	4b1e      	ldr	r3, [pc, #120]	; (80004c8 <DMA_DeInit+0x188>)
 8000450:	4a16      	ldr	r2, [pc, #88]	; (80004ac <DMA_DeInit+0x16c>)
 8000452:	60da      	str	r2, [r3, #12]
}
 8000454:	e017      	b.n	8000486 <DMA_DeInit+0x146>
  else if (DMAy_Streamx == DMA2_Stream5)
 8000456:	687b      	ldr	r3, [r7, #4]
 8000458:	4a20      	ldr	r2, [pc, #128]	; (80004dc <DMA_DeInit+0x19c>)
 800045a:	4293      	cmp	r3, r2
 800045c:	d103      	bne.n	8000466 <DMA_DeInit+0x126>
    DMA2->HIFCR = DMA_Stream5_IT_MASK;
 800045e:	4b1a      	ldr	r3, [pc, #104]	; (80004c8 <DMA_DeInit+0x188>)
 8000460:	4a14      	ldr	r2, [pc, #80]	; (80004b4 <DMA_DeInit+0x174>)
 8000462:	60da      	str	r2, [r3, #12]
}
 8000464:	e00f      	b.n	8000486 <DMA_DeInit+0x146>
  else if (DMAy_Streamx == DMA2_Stream6)
 8000466:	687b      	ldr	r3, [r7, #4]
 8000468:	4a1d      	ldr	r2, [pc, #116]	; (80004e0 <DMA_DeInit+0x1a0>)
 800046a:	4293      	cmp	r3, r2
 800046c:	d103      	bne.n	8000476 <DMA_DeInit+0x136>
    DMA2->HIFCR = DMA_Stream6_IT_MASK;
 800046e:	4b16      	ldr	r3, [pc, #88]	; (80004c8 <DMA_DeInit+0x188>)
 8000470:	4a12      	ldr	r2, [pc, #72]	; (80004bc <DMA_DeInit+0x17c>)
 8000472:	60da      	str	r2, [r3, #12]
}
 8000474:	e007      	b.n	8000486 <DMA_DeInit+0x146>
    if (DMAy_Streamx == DMA2_Stream7)
 8000476:	687b      	ldr	r3, [r7, #4]
 8000478:	4a1a      	ldr	r2, [pc, #104]	; (80004e4 <DMA_DeInit+0x1a4>)
 800047a:	4293      	cmp	r3, r2
 800047c:	d103      	bne.n	8000486 <DMA_DeInit+0x146>
      DMA2->HIFCR = DMA_Stream7_IT_MASK;
 800047e:	4b12      	ldr	r3, [pc, #72]	; (80004c8 <DMA_DeInit+0x188>)
 8000480:	f04f 523d 	mov.w	r2, #792723456	; 0x2f400000
 8000484:	60da      	str	r2, [r3, #12]
}
 8000486:	bf00      	nop
 8000488:	370c      	adds	r7, #12
 800048a:	46bd      	mov	sp, r7
 800048c:	f85d 7b04 	ldr.w	r7, [sp], #4
 8000490:	4770      	bx	lr
 8000492:	bf00      	nop
 8000494:	40026010 	.word	0x40026010
 8000498:	40026000 	.word	0x40026000
 800049c:	40026028 	.word	0x40026028
 80004a0:	40026040 	.word	0x40026040
 80004a4:	40026058 	.word	0x40026058
 80004a8:	40026070 	.word	0x40026070
 80004ac:	2000003d 	.word	0x2000003d
 80004b0:	40026088 	.word	0x40026088
 80004b4:	20000f40 	.word	0x20000f40
 80004b8:	400260a0 	.word	0x400260a0
 80004bc:	203d0000 	.word	0x203d0000
 80004c0:	400260b8 	.word	0x400260b8
 80004c4:	40026410 	.word	0x40026410
 80004c8:	40026400 	.word	0x40026400
 80004cc:	40026428 	.word	0x40026428
 80004d0:	40026440 	.word	0x40026440
 80004d4:	40026458 	.word	0x40026458
 80004d8:	40026470 	.word	0x40026470
 80004dc:	40026488 	.word	0x40026488
 80004e0:	400264a0 	.word	0x400264a0
 80004e4:	400264b8 	.word	0x400264b8

080004e8 <DMA_Init>:
  * @param  DMA_InitStruct: pointer to a DMA_InitTypeDef structure that contains
  *         the configuration information for the specified DMA Stream.  
  * @retval None
  */
void DMA_Init(DMA_Stream_TypeDef* DMAy_Streamx, DMA_InitTypeDef* DMA_InitStruct)
{
 80004e8:	b480      	push	{r7}
 80004ea:	b085      	sub	sp, #20
 80004ec:	af00      	add	r7, sp, #0
 80004ee:	6078      	str	r0, [r7, #4]
 80004f0:	6039      	str	r1, [r7, #0]
  uint32_t tmpreg = 0;
 80004f2:	2300      	movs	r3, #0
 80004f4:	60fb      	str	r3, [r7, #12]
  assert_param(IS_DMA_MEMORY_BURST(DMA_InitStruct->DMA_MemoryBurst));
  assert_param(IS_DMA_PERIPHERAL_BURST(DMA_InitStruct->DMA_PeripheralBurst));

  /*------------------------- DMAy Streamx CR Configuration ------------------*/
  /* Get the DMAy_Streamx CR value */
  tmpreg = DMAy_Streamx->CR;
 80004f6:	687b      	ldr	r3, [r7, #4]
 80004f8:	681b      	ldr	r3, [r3, #0]
 80004fa:	60fb      	str	r3, [r7, #12]

  /* Clear CHSEL, MBURST, PBURST, PL, MSIZE, PSIZE, MINC, PINC, CIRC and DIR bits */
  tmpreg &= ((uint32_t)~(DMA_SxCR_CHSEL | DMA_SxCR_MBURST | DMA_SxCR_PBURST | \
 80004fc:	68fa      	ldr	r2, [r7, #12]
 80004fe:	4b25      	ldr	r3, [pc, #148]	; (8000594 <DMA_Init+0xac>)
 8000500:	4013      	ands	r3, r2
 8000502:	60fb      	str	r3, [r7, #12]
  /* Set MSIZE bits according to DMA_MemoryDataSize value */
  /* Set CIRC bit according to DMA_Mode value */
  /* Set PL bits according to DMA_Priority value */
  /* Set MBURST bits according to DMA_MemoryBurst value */
  /* Set PBURST bits according to DMA_PeripheralBurst value */
  tmpreg |= DMA_InitStruct->DMA_Channel | DMA_InitStruct->DMA_DIR |
 8000504:	683b      	ldr	r3, [r7, #0]
 8000506:	681a      	ldr	r2, [r3, #0]
 8000508:	683b      	ldr	r3, [r7, #0]
 800050a:	68db      	ldr	r3, [r3, #12]
 800050c:	431a      	orrs	r2, r3
            DMA_InitStruct->DMA_PeripheralInc | DMA_InitStruct->DMA_MemoryInc |
 800050e:	683b      	ldr	r3, [r7, #0]
 8000510:	695b      	ldr	r3, [r3, #20]
  tmpreg |= DMA_InitStruct->DMA_Channel | DMA_InitStruct->DMA_DIR |
 8000512:	431a      	orrs	r2, r3
            DMA_InitStruct->DMA_PeripheralInc | DMA_InitStruct->DMA_MemoryInc |
 8000514:	683b      	ldr	r3, [r7, #0]
 8000516:	699b      	ldr	r3, [r3, #24]
 8000518:	431a      	orrs	r2, r3
            DMA_InitStruct->DMA_PeripheralDataSize | DMA_InitStruct->DMA_MemoryDataSize |
 800051a:	683b      	ldr	r3, [r7, #0]
 800051c:	69db      	ldr	r3, [r3, #28]
            DMA_InitStruct->DMA_PeripheralInc | DMA_InitStruct->DMA_MemoryInc |
 800051e:	431a      	orrs	r2, r3
            DMA_InitStruct->DMA_PeripheralDataSize | DMA_InitStruct->DMA_MemoryDataSize |
 8000520:	683b      	ldr	r3, [r7, #0]
 8000522:	6a1b      	ldr	r3, [r3, #32]
 8000524:	431a      	orrs	r2, r3
            DMA_InitStruct->DMA_Mode | DMA_InitStruct->DMA_Priority |
 8000526:	683b      	ldr	r3, [r7, #0]
 8000528:	6a5b      	ldr	r3, [r3, #36]	; 0x24
            DMA_InitStruct->DMA_PeripheralDataSize | DMA_InitStruct->DMA_MemoryDataSize |
 800052a:	431a      	orrs	r2, r3
            DMA_InitStruct->DMA_Mode | DMA_InitStruct->DMA_Priority |
 800052c:	683b      	ldr	r3, [r7, #0]
 800052e:	6a9b      	ldr	r3, [r3, #40]	; 0x28
 8000530:	431a      	orrs	r2, r3
            DMA_InitStruct->DMA_MemoryBurst | DMA_InitStruct->DMA_PeripheralBurst;
 8000532:	683b      	ldr	r3, [r7, #0]
 8000534:	6b5b      	ldr	r3, [r3, #52]	; 0x34
            DMA_InitStruct->DMA_Mode | DMA_InitStruct->DMA_Priority |
 8000536:	431a      	orrs	r2, r3
            DMA_InitStruct->DMA_MemoryBurst | DMA_InitStruct->DMA_PeripheralBurst;
 8000538:	683b      	ldr	r3, [r7, #0]
 800053a:	6b9b      	ldr	r3, [r3, #56]	; 0x38
 800053c:	4313      	orrs	r3, r2
  tmpreg |= DMA_InitStruct->DMA_Channel | DMA_InitStruct->DMA_DIR |
 800053e:	68fa      	ldr	r2, [r7, #12]
 8000540:	4313      	orrs	r3, r2
 8000542:	60fb      	str	r3, [r7, #12]

  /* Write to DMAy Streamx CR register */
  DMAy_Streamx->CR = tmpreg;
 8000544:	687b      	ldr	r3, [r7, #4]
 8000546:	68fa      	ldr	r2, [r7, #12]
 8000548:	601a      	str	r2, [r3, #0]

  /*------------------------- DMAy Streamx FCR Configuration -----------------*/
  /* Get the DMAy_Streamx FCR value */
  tmpreg = DMAy_Streamx->FCR;
 800054a:	687b      	ldr	r3, [r7, #4]
 800054c:	695b      	ldr	r3, [r3, #20]
 800054e:	60fb      	str	r3, [r7, #12]

  /* Clear DMDIS and FTH bits */
  tmpreg &= (uint32_t)~(DMA_SxFCR_DMDIS | DMA_SxFCR_FTH);
 8000550:	68fb      	ldr	r3, [r7, #12]
 8000552:	f023 0307 	bic.w	r3, r3, #7
 8000556:	60fb      	str	r3, [r7, #12]

  /* Configure DMAy Streamx FIFO: 
    Set DMDIS bits according to DMA_FIFOMode value 
    Set FTH bits according to DMA_FIFOThreshold value */
  tmpreg |= DMA_InitStruct->DMA_FIFOMode | DMA_InitStruct->DMA_FIFOThreshold;
 8000558:	683b      	ldr	r3, [r7, #0]
 800055a:	6ada      	ldr	r2, [r3, #44]	; 0x2c
 800055c:	683b      	ldr	r3, [r7, #0]
 800055e:	6b1b      	ldr	r3, [r3, #48]	; 0x30
 8000560:	4313      	orrs	r3, r2
 8000562:	68fa      	ldr	r2, [r7, #12]
 8000564:	4313      	orrs	r3, r2
 8000566:	60fb      	str	r3, [r7, #12]

  /* Write to DMAy Streamx CR */
  DMAy_Streamx->FCR = tmpreg;
 8000568:	687b      	ldr	r3, [r7, #4]
 800056a:	68fa      	ldr	r2, [r7, #12]
 800056c:	615a      	str	r2, [r3, #20]

  /*------------------------- DMAy Streamx NDTR Configuration ----------------*/
  /* Write to DMAy Streamx NDTR register */
  DMAy_Streamx->NDTR = DMA_InitStruct->DMA_BufferSize;
 800056e:	683b      	ldr	r3, [r7, #0]
 8000570:	691a      	ldr	r2, [r3, #16]
 8000572:	687b      	ldr	r3, [r7, #4]
 8000574:	605a      	str	r2, [r3, #4]

  /*------------------------- DMAy Streamx PAR Configuration -----------------*/
  /* Write to DMAy Streamx PAR */
  DMAy_Streamx->PAR = DMA_InitStruct->DMA_PeripheralBaseAddr;
 8000576:	683b      	ldr	r3, [r7, #0]
 8000578:	685a      	ldr	r2, [r3, #4]
 800057a:	687b      	ldr	r3, [r7, #4]
 800057c:	609a      	str	r2, [r3, #8]

  /*------------------------- DMAy Streamx M0AR Configuration ----------------*/
  /* Write to DMAy Streamx M0AR */
  DMAy_Streamx->M0AR = DMA_InitStruct->DMA_Memory0BaseAddr;
 800057e:	683b      	ldr	r3, [r7, #0]
 8000580:	689a      	ldr	r2, [r3, #8]
 8000582:	687b      	ldr	r3, [r7, #4]
 8000584:	60da      	str	r2, [r3, #12]
}
 8000586:	bf00      	nop
 8000588:	3714      	adds	r7, #20
 800058a:	46bd      	mov	sp, r7
 800058c:	f85d 7b04 	ldr.w	r7, [sp], #4
 8000590:	4770      	bx	lr
 8000592:	bf00      	nop
 8000594:	f01c803f 	.word	0xf01c803f

08000598 <DMA_Cmd>:
  *        this single data is finished.            
  *    
  * @retval None
  */
void DMA_Cmd(DMA_Stream_TypeDef* DMAy_Streamx, FunctionalState NewState)
{
 8000598:	b480      	push	{r7}
 800059a:	b083      	sub	sp, #12
 800059c:	af00      	add	r7, sp, #0
 800059e:	6078      	str	r0, [r7, #4]
 80005a0:	460b      	mov	r3, r1
 80005a2:	70fb      	strb	r3, [r7, #3]
  /* Check the parameters */
  assert_param(IS_DMA_ALL_PERIPH(DMAy_Streamx));
  assert_param(IS_FUNCTIONAL_STATE(NewState));

  if (NewState != DISABLE)
 80005a4:	78fb      	ldrb	r3, [r7, #3]
 80005a6:	2b00      	cmp	r3, #0
 80005a8:	d006      	beq.n	80005b8 <DMA_Cmd+0x20>
  {
    /* Enable the selected DMAy Streamx by setting EN bit */
    DMAy_Streamx->CR |= (uint32_t)DMA_SxCR_EN;
 80005aa:	687b      	ldr	r3, [r7, #4]
 80005ac:	681b      	ldr	r3, [r3, #0]
 80005ae:	f043 0201 	orr.w	r2, r3, #1
 80005b2:	687b      	ldr	r3, [r7, #4]
 80005b4:	601a      	str	r2, [r3, #0]
  else
  {
    /* Disable the selected DMAy Streamx by clearing EN bit */
    DMAy_Streamx->CR &= ~(uint32_t)DMA_SxCR_EN;
  }
}
 80005b6:	e005      	b.n	80005c4 <DMA_Cmd+0x2c>
    DMAy_Streamx->CR &= ~(uint32_t)DMA_SxCR_EN;
 80005b8:	687b      	ldr	r3, [r7, #4]
 80005ba:	681b      	ldr	r3, [r3, #0]
 80005bc:	f023 0201 	bic.w	r2, r3, #1
 80005c0:	687b      	ldr	r3, [r7, #4]
 80005c2:	601a      	str	r2, [r3, #0]
}
 80005c4:	bf00      	nop
 80005c6:	370c      	adds	r7, #12
 80005c8:	46bd      	mov	sp, r7
 80005ca:	f85d 7b04 	ldr.w	r7, [sp], #4
 80005ce:	4770      	bx	lr

080005d0 <DMA_ITConfig>:
  * @param  NewState: new state of the specified DMA interrupts.
  *          This parameter can be: ENABLE or DISABLE.
  * @retval None
  */
void DMA_ITConfig(DMA_Stream_TypeDef* DMAy_Streamx, uint32_t DMA_IT, FunctionalState NewState)
{
 80005d0:	b480      	push	{r7}
 80005d2:	b085      	sub	sp, #20
 80005d4:	af00      	add	r7, sp, #0
 80005d6:	60f8      	str	r0, [r7, #12]
 80005d8:	60b9      	str	r1, [r7, #8]
 80005da:	4613      	mov	r3, r2
 80005dc:	71fb      	strb	r3, [r7, #7]
  assert_param(IS_DMA_ALL_PERIPH(DMAy_Streamx));
  assert_param(IS_DMA_CONFIG_IT(DMA_IT));
  assert_param(IS_FUNCTIONAL_STATE(NewState));

  /* Check if the DMA_IT parameter contains a FIFO interrupt */
  if ((DMA_IT & DMA_IT_FE) != 0)
 80005de:	68bb      	ldr	r3, [r7, #8]
 80005e0:	f003 0380 	and.w	r3, r3, #128	; 0x80
 80005e4:	2b00      	cmp	r3, #0
 80005e6:	d00f      	beq.n	8000608 <DMA_ITConfig+0x38>
  {
    if (NewState != DISABLE)
 80005e8:	79fb      	ldrb	r3, [r7, #7]
 80005ea:	2b00      	cmp	r3, #0
 80005ec:	d006      	beq.n	80005fc <DMA_ITConfig+0x2c>
    {
      /* Enable the selected DMA FIFO interrupts */
      DMAy_Streamx->FCR |= (uint32_t)DMA_IT_FE;
 80005ee:	68fb      	ldr	r3, [r7, #12]
 80005f0:	695b      	ldr	r3, [r3, #20]
 80005f2:	f043 0280 	orr.w	r2, r3, #128	; 0x80
 80005f6:	68fb      	ldr	r3, [r7, #12]
 80005f8:	615a      	str	r2, [r3, #20]
 80005fa:	e005      	b.n	8000608 <DMA_ITConfig+0x38>
    }    
    else 
    {
      /* Disable the selected DMA FIFO interrupts */
      DMAy_Streamx->FCR &= ~(uint32_t)DMA_IT_FE;  
 80005fc:	68fb      	ldr	r3, [r7, #12]
 80005fe:	695b      	ldr	r3, [r3, #20]
 8000600:	f023 0280 	bic.w	r2, r3, #128	; 0x80
 8000604:	68fb      	ldr	r3, [r7, #12]
 8000606:	615a      	str	r2, [r3, #20]
    }
  }

  /* Check if the DMA_IT parameter contains a Transfer interrupt */
  if (DMA_IT != DMA_IT_FE)
 8000608:	68bb      	ldr	r3, [r7, #8]
 800060a:	2b80      	cmp	r3, #128	; 0x80
 800060c:	d014      	beq.n	8000638 <DMA_ITConfig+0x68>
  {
    if (NewState != DISABLE)
 800060e:	79fb      	ldrb	r3, [r7, #7]
 8000610:	2b00      	cmp	r3, #0
 8000612:	d008      	beq.n	8000626 <DMA_ITConfig+0x56>
    {
      /* Enable the selected DMA transfer interrupts */
      DMAy_Streamx->CR |= (uint32_t)(DMA_IT  & TRANSFER_IT_ENABLE_MASK);
 8000614:	68fb      	ldr	r3, [r7, #12]
 8000616:	681a      	ldr	r2, [r3, #0]
 8000618:	68bb      	ldr	r3, [r7, #8]
 800061a:	f003 031e 	and.w	r3, r3, #30
 800061e:	431a      	orrs	r2, r3
 8000620:	68fb      	ldr	r3, [r7, #12]
 8000622:	601a      	str	r2, [r3, #0]
    {
      /* Disable the selected DMA transfer interrupts */
      DMAy_Streamx->CR &= ~(uint32_t)(DMA_IT & TRANSFER_IT_ENABLE_MASK);
    }    
  }
}
 8000624:	e008      	b.n	8000638 <DMA_ITConfig+0x68>
      DMAy_Streamx->CR &= ~(uint32_t)(DMA_IT & TRANSFER_IT_ENABLE_MASK);
 8000626:	68fb      	ldr	r3, [r7, #12]
 8000628:	681a      	ldr	r2, [r3, #0]
 800062a:	68bb      	ldr	r3, [r7, #8]
 800062c:	f003 031e 	and.w	r3, r3, #30
 8000630:	43db      	mvns	r3, r3
 8000632:	401a      	ands	r2, r3
 8000634:	68fb      	ldr	r3, [r7, #12]
 8000636:	601a      	str	r2, [r3, #0]
}
 8000638:	bf00      	nop
 800063a:	3714      	adds	r7, #20
 800063c:	46bd      	mov	sp, r7
 800063e:	f85d 7b04 	ldr.w	r7, [sp], #4
 8000642:	4770      	bx	lr

08000644 <DMA_GetITStatus>:
  *            @arg DMA_IT_FEIFx:  Streamx FIFO error interrupt
  *         Where x can be 0 to 7 to select the DMA Stream.
  * @retval The new state of DMA_IT (SET or RESET).
  */
ITStatus DMA_GetITStatus(DMA_Stream_TypeDef* DMAy_Streamx, uint32_t DMA_IT)
{
 8000644:	b480      	push	{r7}
 8000646:	b087      	sub	sp, #28
 8000648:	af00      	add	r7, sp, #0
 800064a:	6078      	str	r0, [r7, #4]
 800064c:	6039      	str	r1, [r7, #0]
  ITStatus bitstatus = RESET;
 800064e:	2300      	movs	r3, #0
 8000650:	75fb      	strb	r3, [r7, #23]
  DMA_TypeDef* DMAy;
  uint32_t tmpreg = 0, enablestatus = 0;
 8000652:	2300      	movs	r3, #0
 8000654:	60fb      	str	r3, [r7, #12]
 8000656:	2300      	movs	r3, #0
 8000658:	60bb      	str	r3, [r7, #8]
  /* Check the parameters */
  assert_param(IS_DMA_ALL_PERIPH(DMAy_Streamx));
  assert_param(IS_DMA_GET_IT(DMA_IT));
 
  /* Determine the DMA to which belongs the stream */
  if (DMAy_Streamx < DMA2_Stream0)
 800065a:	687b      	ldr	r3, [r7, #4]
 800065c:	4a22      	ldr	r2, [pc, #136]	; (80006e8 <DMA_GetITStatus+0xa4>)
 800065e:	4293      	cmp	r3, r2
 8000660:	d802      	bhi.n	8000668 <DMA_GetITStatus+0x24>
  {
    /* DMAy_Streamx belongs to DMA1 */
    DMAy = DMA1; 
 8000662:	4b22      	ldr	r3, [pc, #136]	; (80006ec <DMA_GetITStatus+0xa8>)
 8000664:	613b      	str	r3, [r7, #16]
 8000666:	e001      	b.n	800066c <DMA_GetITStatus+0x28>
  } 
  else 
  {
    /* DMAy_Streamx belongs to DMA2 */
    DMAy = DMA2; 
 8000668:	4b21      	ldr	r3, [pc, #132]	; (80006f0 <DMA_GetITStatus+0xac>)
 800066a:	613b      	str	r3, [r7, #16]
  }

  /* Check if the interrupt enable bit is in the CR or FCR register */
  if ((DMA_IT & TRANSFER_IT_MASK) != (uint32_t)RESET)
 800066c:	683b      	ldr	r3, [r7, #0]
 800066e:	f023 23f0 	bic.w	r3, r3, #4026593280	; 0xf000f000
 8000672:	f023 13c3 	bic.w	r3, r3, #12779715	; 0xc300c3
 8000676:	2b00      	cmp	r3, #0
 8000678:	d00a      	beq.n	8000690 <DMA_GetITStatus+0x4c>
  {
    /* Get the interrupt enable position mask in CR register */
    tmpreg = (uint32_t)((DMA_IT >> 11) & TRANSFER_IT_ENABLE_MASK);   
 800067a:	683b      	ldr	r3, [r7, #0]
 800067c:	0adb      	lsrs	r3, r3, #11
 800067e:	f003 031e 	and.w	r3, r3, #30
 8000682:	60fb      	str	r3, [r7, #12]
    
    /* Check the enable bit in CR register */
    enablestatus = (uint32_t)(DMAy_Streamx->CR & tmpreg);
 8000684:	687b      	ldr	r3, [r7, #4]
 8000686:	681a      	ldr	r2, [r3, #0]
 8000688:	68fb      	ldr	r3, [r7, #12]
 800068a:	4013      	ands	r3, r2
 800068c:	60bb      	str	r3, [r7, #8]
 800068e:	e004      	b.n	800069a <DMA_GetITStatus+0x56>
  }
  else 
  {
    /* Check the enable bit in FCR register */
    enablestatus = (uint32_t)(DMAy_Streamx->FCR & DMA_IT_FE); 
 8000690:	687b      	ldr	r3, [r7, #4]
 8000692:	695b      	ldr	r3, [r3, #20]
 8000694:	f003 0380 	and.w	r3, r3, #128	; 0x80
 8000698:	60bb      	str	r3, [r7, #8]
  }
 
  /* Check if the interrupt pending flag is in LISR or HISR */
  if ((DMA_IT & HIGH_ISR_MASK) != (uint32_t)RESET)
 800069a:	683b      	ldr	r3, [r7, #0]
 800069c:	f003 5300 	and.w	r3, r3, #536870912	; 0x20000000
 80006a0:	2b00      	cmp	r3, #0
 80006a2:	d003      	beq.n	80006ac <DMA_GetITStatus+0x68>
  {
    /* Get DMAy HISR register value */
    tmpreg = DMAy->HISR ;
 80006a4:	693b      	ldr	r3, [r7, #16]
 80006a6:	685b      	ldr	r3, [r3, #4]
 80006a8:	60fb      	str	r3, [r7, #12]
 80006aa:	e002      	b.n	80006b2 <DMA_GetITStatus+0x6e>
  }
  else
  {
    /* Get DMAy LISR register value */
    tmpreg = DMAy->LISR ;
 80006ac:	693b      	ldr	r3, [r7, #16]
 80006ae:	681b      	ldr	r3, [r3, #0]
 80006b0:	60fb      	str	r3, [r7, #12]
  } 

  /* mask all reserved bits */
  tmpreg &= (uint32_t)RESERVED_MASK;
 80006b2:	68fb      	ldr	r3, [r7, #12]
 80006b4:	f023 23f0 	bic.w	r3, r3, #4026593280	; 0xf000f000
 80006b8:	f023 1382 	bic.w	r3, r3, #8519810	; 0x820082
 80006bc:	60fb      	str	r3, [r7, #12]

  /* Check the status of the specified DMA interrupt */
  if (((tmpreg & DMA_IT) != (uint32_t)RESET) && (enablestatus != (uint32_t)RESET))
 80006be:	68fa      	ldr	r2, [r7, #12]
 80006c0:	683b      	ldr	r3, [r7, #0]
 80006c2:	4013      	ands	r3, r2
 80006c4:	2b00      	cmp	r3, #0
 80006c6:	d005      	beq.n	80006d4 <DMA_GetITStatus+0x90>
 80006c8:	68bb      	ldr	r3, [r7, #8]
 80006ca:	2b00      	cmp	r3, #0
 80006cc:	d002      	beq.n	80006d4 <DMA_GetITStatus+0x90>
  {
    /* DMA_IT is set */
    bitstatus = SET;
 80006ce:	2301      	movs	r3, #1
 80006d0:	75fb      	strb	r3, [r7, #23]
 80006d2:	e001      	b.n	80006d8 <DMA_GetITStatus+0x94>
  }
  else
  {
    /* DMA_IT is reset */
    bitstatus = RESET;
 80006d4:	2300      	movs	r3, #0
 80006d6:	75fb      	strb	r3, [r7, #23]
  }

  /* Return the DMA_IT status */
  return  bitstatus;
 80006d8:	7dfb      	ldrb	r3, [r7, #23]
}
 80006da:	4618      	mov	r0, r3
 80006dc:	371c      	adds	r7, #28
 80006de:	46bd      	mov	sp, r7
 80006e0:	f85d 7b04 	ldr.w	r7, [sp], #4
 80006e4:	4770      	bx	lr
 80006e6:	bf00      	nop
 80006e8:	4002640f 	.word	0x4002640f
 80006ec:	40026000 	.word	0x40026000
 80006f0:	40026400 	.word	0x40026400

080006f4 <DMA_ClearITPendingBit>:
  *            @arg DMA_IT_FEIFx:  Streamx FIFO error interrupt
  *         Where x can be 0 to 7 to select the DMA Stream.
  * @retval None
  */
void DMA_ClearITPendingBit(DMA_Stream_TypeDef* DMAy_Streamx, uint32_t DMA_IT)
{
 80006f4:	b480      	push	{r7}
 80006f6:	b085      	sub	sp, #20
 80006f8:	af00      	add	r7, sp, #0
 80006fa:	6078      	str	r0, [r7, #4]
 80006fc:	6039      	str	r1, [r7, #0]
  /* Check the parameters */
  assert_param(IS_DMA_ALL_PERIPH(DMAy_Streamx));
  assert_param(IS_DMA_CLEAR_IT(DMA_IT));

  /* Determine the DMA to which belongs the stream */
  if (DMAy_Streamx < DMA2_Stream0)
 80006fe:	687b      	ldr	r3, [r7, #4]
 8000700:	4a10      	ldr	r2, [pc, #64]	; (8000744 <DMA_ClearITPendingBit+0x50>)
 8000702:	4293      	cmp	r3, r2
 8000704:	d802      	bhi.n	800070c <DMA_ClearITPendingBit+0x18>
  {
    /* DMAy_Streamx belongs to DMA1 */
    DMAy = DMA1; 
 8000706:	4b10      	ldr	r3, [pc, #64]	; (8000748 <DMA_ClearITPendingBit+0x54>)
 8000708:	60fb      	str	r3, [r7, #12]
 800070a:	e001      	b.n	8000710 <DMA_ClearITPendingBit+0x1c>
  } 
  else 
  {
    /* DMAy_Streamx belongs to DMA2 */
    DMAy = DMA2; 
 800070c:	4b0f      	ldr	r3, [pc, #60]	; (800074c <DMA_ClearITPendingBit+0x58>)
 800070e:	60fb      	str	r3, [r7, #12]
  }

  /* Check if LIFCR or HIFCR register is targeted */
  if ((DMA_IT & HIGH_ISR_MASK) != (uint32_t)RESET)
 8000710:	683b      	ldr	r3, [r7, #0]
 8000712:	f003 5300 	and.w	r3, r3, #536870912	; 0x20000000
 8000716:	2b00      	cmp	r3, #0
 8000718:	d007      	beq.n	800072a <DMA_ClearITPendingBit+0x36>
  {
    /* Set DMAy HIFCR register clear interrupt bits */
    DMAy->HIFCR = (uint32_t)(DMA_IT & RESERVED_MASK);
 800071a:	683b      	ldr	r3, [r7, #0]
 800071c:	f023 23f0 	bic.w	r3, r3, #4026593280	; 0xf000f000
 8000720:	f023 1382 	bic.w	r3, r3, #8519810	; 0x820082
 8000724:	68fa      	ldr	r2, [r7, #12]
 8000726:	60d3      	str	r3, [r2, #12]
  else 
  {
    /* Set DMAy LIFCR register clear interrupt bits */
    DMAy->LIFCR = (uint32_t)(DMA_IT & RESERVED_MASK);
  }   
}
 8000728:	e006      	b.n	8000738 <DMA_ClearITPendingBit+0x44>
    DMAy->LIFCR = (uint32_t)(DMA_IT & RESERVED_MASK);
 800072a:	683b      	ldr	r3, [r7, #0]
 800072c:	f023 23f0 	bic.w	r3, r3, #4026593280	; 0xf000f000
 8000730:	f023 1382 	bic.w	r3, r3, #8519810	; 0x820082
 8000734:	68fa      	ldr	r2, [r7, #12]
 8000736:	6093      	str	r3, [r2, #8]
}
 8000738:	bf00      	nop
 800073a:	3714      	adds	r7, #20
 800073c:	46bd      	mov	sp, r7
 800073e:	f85d 7b04 	ldr.w	r7, [sp], #4
 8000742:	4770      	bx	lr
 8000744:	4002640f 	.word	0x4002640f
 8000748:	40026000 	.word	0x40026000
 800074c:	40026400 	.word	0x40026400

08000750 <GPIO_Init>:
  * @param  GPIO_InitStruct: pointer to a GPIO_InitTypeDef structure that contains
  *         the configuration information for the specified GPIO peripheral.
  * @retval None
  */
void GPIO_Init(GPIO_TypeDef* GPIOx, GPIO_InitTypeDef* GPIO_InitStruct)
{
 8000750:	b480      	push	{r7}
 8000752:	b087      	sub	sp, #28
 8000754:	af00      	add	r7, sp, #0
 8000756:	6078      	str	r0, [r7, #4]
 8000758:	6039      	str	r1, [r7, #0]
  uint32_t pinpos = 0x00, pos = 0x00 , currentpin = 0x00;
 800075a:	2300      	movs	r3, #0
 800075c:	617b      	str	r3, [r7, #20]
 800075e:	2300      	movs	r3, #0
 8000760:	613b      	str	r3, [r7, #16]
 8000762:	2300      	movs	r3, #0
 8000764:	60fb      	str	r3, [r7, #12]
  assert_param(IS_GPIO_MODE(GPIO_InitStruct->GPIO_Mode));
  assert_param(IS_GPIO_PUPD(GPIO_InitStruct->GPIO_PuPd));

  /* ------------------------- Configure the port pins ---------------- */
  /*-- GPIO Mode Configuration --*/
  for (pinpos = 0x00; pinpos < 0x10; pinpos++)
 8000766:	2300      	movs	r3, #0
 8000768:	617b      	str	r3, [r7, #20]
 800076a:	e076      	b.n	800085a <GPIO_Init+0x10a>
  {
    pos = ((uint32_t)0x01) << pinpos;
 800076c:	2201      	movs	r2, #1
 800076e:	697b      	ldr	r3, [r7, #20]
 8000770:	fa02 f303 	lsl.w	r3, r2, r3
 8000774:	613b      	str	r3, [r7, #16]
    /* Get the port pins position */
    currentpin = (GPIO_InitStruct->GPIO_Pin) & pos;
 8000776:	683b      	ldr	r3, [r7, #0]
 8000778:	681a      	ldr	r2, [r3, #0]
 800077a:	693b      	ldr	r3, [r7, #16]
 800077c:	4013      	ands	r3, r2
 800077e:	60fb      	str	r3, [r7, #12]

    if (currentpin == pos)
 8000780:	68fa      	ldr	r2, [r7, #12]
 8000782:	693b      	ldr	r3, [r7, #16]
 8000784:	429a      	cmp	r2, r3
 8000786:	d165      	bne.n	8000854 <GPIO_Init+0x104>
    {
      GPIOx->MODER  &= ~(GPIO_MODER_MODER0 << (pinpos * 2));
 8000788:	687b      	ldr	r3, [r7, #4]
 800078a:	681a      	ldr	r2, [r3, #0]
 800078c:	697b      	ldr	r3, [r7, #20]
 800078e:	005b      	lsls	r3, r3, #1
 8000790:	2103      	movs	r1, #3
 8000792:	fa01 f303 	lsl.w	r3, r1, r3
 8000796:	43db      	mvns	r3, r3
 8000798:	401a      	ands	r2, r3
 800079a:	687b      	ldr	r3, [r7, #4]
 800079c:	601a      	str	r2, [r3, #0]
      GPIOx->MODER |= (((uint32_t)GPIO_InitStruct->GPIO_Mode) << (pinpos * 2));
 800079e:	687b      	ldr	r3, [r7, #4]
 80007a0:	681a      	ldr	r2, [r3, #0]
 80007a2:	683b      	ldr	r3, [r7, #0]
 80007a4:	791b      	ldrb	r3, [r3, #4]
 80007a6:	4619      	mov	r1, r3
 80007a8:	697b      	ldr	r3, [r7, #20]
 80007aa:	005b      	lsls	r3, r3, #1
 80007ac:	fa01 f303 	lsl.w	r3, r1, r3
 80007b0:	431a      	orrs	r2, r3
 80007b2:	687b      	ldr	r3, [r7, #4]
 80007b4:	601a      	str	r2, [r3, #0]

      if ((GPIO_InitStruct->GPIO_Mode == GPIO_Mode_OUT) || (GPIO_InitStruct->GPIO_Mode == GPIO_Mode_AF))
 80007b6:	683b      	ldr	r3, [r7, #0]
 80007b8:	791b      	ldrb	r3, [r3, #4]
 80007ba:	2b01      	cmp	r3, #1
 80007bc:	d003      	beq.n	80007c6 <GPIO_Init+0x76>
 80007be:	683b      	ldr	r3, [r7, #0]
 80007c0:	791b      	ldrb	r3, [r3, #4]
 80007c2:	2b02      	cmp	r3, #2
 80007c4:	d12e      	bne.n	8000824 <GPIO_Init+0xd4>
      {
        /* Check Speed mode parameters */
        assert_param(IS_GPIO_SPEED(GPIO_InitStruct->GPIO_Speed));

        /* Speed mode configuration */
        GPIOx->OSPEEDR &= ~(GPIO_OSPEEDER_OSPEEDR0 << (pinpos * 2));
 80007c6:	687b      	ldr	r3, [r7, #4]
 80007c8:	689a      	ldr	r2, [r3, #8]
 80007ca:	697b      	ldr	r3, [r7, #20]
 80007cc:	005b      	lsls	r3, r3, #1
 80007ce:	2103      	movs	r1, #3
 80007d0:	fa01 f303 	lsl.w	r3, r1, r3
 80007d4:	43db      	mvns	r3, r3
 80007d6:	401a      	ands	r2, r3
 80007d8:	687b      	ldr	r3, [r7, #4]
 80007da:	609a      	str	r2, [r3, #8]
        GPIOx->OSPEEDR |= ((uint32_t)(GPIO_InitStruct->GPIO_Speed) << (pinpos * 2));
 80007dc:	687b      	ldr	r3, [r7, #4]
 80007de:	689a      	ldr	r2, [r3, #8]
 80007e0:	683b      	ldr	r3, [r7, #0]
 80007e2:	795b      	ldrb	r3, [r3, #5]
 80007e4:	4619      	mov	r1, r3
 80007e6:	697b      	ldr	r3, [r7, #20]
 80007e8:	005b      	lsls	r3, r3, #1
 80007ea:	fa01 f303 	lsl.w	r3, r1, r3
 80007ee:	431a      	orrs	r2, r3
 80007f0:	687b      	ldr	r3, [r7, #4]
 80007f2:	609a      	str	r2, [r3, #8]

        /* Check Output mode parameters */
        assert_param(IS_GPIO_OTYPE(GPIO_InitStruct->GPIO_OType));

        /* Output mode configuration*/
        GPIOx->OTYPER  &= ~((GPIO_OTYPER_OT_0) << ((uint16_t)pinpos)) ;
 80007f4:	687b      	ldr	r3, [r7, #4]
 80007f6:	685a      	ldr	r2, [r3, #4]
 80007f8:	697b      	ldr	r3, [r7, #20]
 80007fa:	b29b      	uxth	r3, r3
 80007fc:	4619      	mov	r1, r3
 80007fe:	2301      	movs	r3, #1
 8000800:	408b      	lsls	r3, r1
 8000802:	43db      	mvns	r3, r3
 8000804:	401a      	ands	r2, r3
 8000806:	687b      	ldr	r3, [r7, #4]
 8000808:	605a      	str	r2, [r3, #4]
        GPIOx->OTYPER |= (uint16_t)(((uint16_t)GPIO_InitStruct->GPIO_OType) << ((uint16_t)pinpos));
 800080a:	687b      	ldr	r3, [r7, #4]
 800080c:	685b      	ldr	r3, [r3, #4]
 800080e:	683a      	ldr	r2, [r7, #0]
 8000810:	7992      	ldrb	r2, [r2, #6]
 8000812:	4611      	mov	r1, r2
 8000814:	697a      	ldr	r2, [r7, #20]
 8000816:	b292      	uxth	r2, r2
 8000818:	fa01 f202 	lsl.w	r2, r1, r2
 800081c:	b292      	uxth	r2, r2
 800081e:	431a      	orrs	r2, r3
 8000820:	687b      	ldr	r3, [r7, #4]
 8000822:	605a      	str	r2, [r3, #4]
      }

      /* Pull-up Pull down resistor configuration*/
      GPIOx->PUPDR &= ~(GPIO_PUPDR_PUPDR0 << ((uint16_t)pinpos * 2));
 8000824:	687b      	ldr	r3, [r7, #4]
 8000826:	68da      	ldr	r2, [r3, #12]
 8000828:	697b      	ldr	r3, [r7, #20]
 800082a:	b29b      	uxth	r3, r3
 800082c:	005b      	lsls	r3, r3, #1
 800082e:	2103      	movs	r1, #3
 8000830:	fa01 f303 	lsl.w	r3, r1, r3
 8000834:	43db      	mvns	r3, r3
 8000836:	401a      	ands	r2, r3
 8000838:	687b      	ldr	r3, [r7, #4]
 800083a:	60da      	str	r2, [r3, #12]
      GPIOx->PUPDR |= (((uint32_t)GPIO_InitStruct->GPIO_PuPd) << (pinpos * 2));
 800083c:	687b      	ldr	r3, [r7, #4]
 800083e:	68da      	ldr	r2, [r3, #12]
 8000840:	683b      	ldr	r3, [r7, #0]
 8000842:	79db      	ldrb	r3, [r3, #7]
 8000844:	4619      	mov	r1, r3
 8000846:	697b      	ldr	r3, [r7, #20]
 8000848:	005b      	lsls	r3, r3, #1
 800084a:	fa01 f303 	lsl.w	r3, r1, r3
 800084e:	431a      	orrs	r2, r3
 8000850:	687b      	ldr	r3, [r7, #4]
 8000852:	60da      	str	r2, [r3, #12]
  for (pinpos = 0x00; pinpos < 0x10; pinpos++)
 8000854:	697b      	ldr	r3, [r7, #20]
 8000856:	3301      	adds	r3, #1
 8000858:	617b      	str	r3, [r7, #20]
 800085a:	697b      	ldr	r3, [r7, #20]
 800085c:	2b0f      	cmp	r3, #15
 800085e:	d985      	bls.n	800076c <GPIO_Init+0x1c>
    }
  }
}
 8000860:	bf00      	nop
 8000862:	371c      	adds	r7, #28
 8000864:	46bd      	mov	sp, r7
 8000866:	f85d 7b04 	ldr.w	r7, [sp], #4
 800086a:	4770      	bx	lr

0800086c <GPIO_PinAFConfig>:
  *            @arg GPIO_AF_DCMI: Connect DCMI pins to AF13 
  *            @arg GPIO_AF_EVENTOUT: Connect EVENTOUT pins to AF15
  * @retval None
  */
void GPIO_PinAFConfig(GPIO_TypeDef* GPIOx, uint16_t GPIO_PinSource, uint8_t GPIO_AF)
{
 800086c:	b480      	push	{r7}
 800086e:	b085      	sub	sp, #20
 8000870:	af00      	add	r7, sp, #0
 8000872:	6078      	str	r0, [r7, #4]
 8000874:	460b      	mov	r3, r1
 8000876:	807b      	strh	r3, [r7, #2]
 8000878:	4613      	mov	r3, r2
 800087a:	707b      	strb	r3, [r7, #1]
  uint32_t temp = 0x00;
 800087c:	2300      	movs	r3, #0
 800087e:	60fb      	str	r3, [r7, #12]
  uint32_t temp_2 = 0x00;
 8000880:	2300      	movs	r3, #0
 8000882:	60bb      	str	r3, [r7, #8]
  /* Check the parameters */
  assert_param(IS_GPIO_ALL_PERIPH(GPIOx));
  assert_param(IS_GPIO_PIN_SOURCE(GPIO_PinSource));
  assert_param(IS_GPIO_AF(GPIO_AF));
  
  temp = ((uint32_t)(GPIO_AF) << ((uint32_t)((uint32_t)GPIO_PinSource & (uint32_t)0x07) * 4)) ;
 8000884:	787a      	ldrb	r2, [r7, #1]
 8000886:	887b      	ldrh	r3, [r7, #2]
 8000888:	f003 0307 	and.w	r3, r3, #7
 800088c:	009b      	lsls	r3, r3, #2
 800088e:	fa02 f303 	lsl.w	r3, r2, r3
 8000892:	60fb      	str	r3, [r7, #12]
  GPIOx->AFR[GPIO_PinSource >> 0x03] &= ~((uint32_t)0xF << ((uint32_t)((uint32_t)GPIO_PinSource & (uint32_t)0x07) * 4)) ;
 8000894:	887b      	ldrh	r3, [r7, #2]
 8000896:	08db      	lsrs	r3, r3, #3
 8000898:	b29b      	uxth	r3, r3
 800089a:	4618      	mov	r0, r3
 800089c:	887b      	ldrh	r3, [r7, #2]
 800089e:	08db      	lsrs	r3, r3, #3
 80008a0:	b29b      	uxth	r3, r3
 80008a2:	461a      	mov	r2, r3
 80008a4:	687b      	ldr	r3, [r7, #4]
 80008a6:	3208      	adds	r2, #8
 80008a8:	f853 2022 	ldr.w	r2, [r3, r2, lsl #2]
 80008ac:	887b      	ldrh	r3, [r7, #2]
 80008ae:	f003 0307 	and.w	r3, r3, #7
 80008b2:	009b      	lsls	r3, r3, #2
 80008b4:	210f      	movs	r1, #15
 80008b6:	fa01 f303 	lsl.w	r3, r1, r3
 80008ba:	43db      	mvns	r3, r3
 80008bc:	ea02 0103 	and.w	r1, r2, r3
 80008c0:	687b      	ldr	r3, [r7, #4]
 80008c2:	f100 0208 	add.w	r2, r0, #8
 80008c6:	f843 1022 	str.w	r1, [r3, r2, lsl #2]
  temp_2 = GPIOx->AFR[GPIO_PinSource >> 0x03] | temp;
 80008ca:	887b      	ldrh	r3, [r7, #2]
 80008cc:	08db      	lsrs	r3, r3, #3
 80008ce:	b29b      	uxth	r3, r3
 80008d0:	461a      	mov	r2, r3
 80008d2:	687b      	ldr	r3, [r7, #4]
 80008d4:	3208      	adds	r2, #8
 80008d6:	f853 2022 	ldr.w	r2, [r3, r2, lsl #2]
 80008da:	68fb      	ldr	r3, [r7, #12]
 80008dc:	4313      	orrs	r3, r2
 80008de:	60bb      	str	r3, [r7, #8]
  GPIOx->AFR[GPIO_PinSource >> 0x03] = temp_2;
 80008e0:	887b      	ldrh	r3, [r7, #2]
 80008e2:	08db      	lsrs	r3, r3, #3
 80008e4:	b29b      	uxth	r3, r3
 80008e6:	461a      	mov	r2, r3
 80008e8:	687b      	ldr	r3, [r7, #4]
 80008ea:	3208      	adds	r2, #8
 80008ec:	68b9      	ldr	r1, [r7, #8]
 80008ee:	f843 1022 	str.w	r1, [r3, r2, lsl #2]
}
 80008f2:	bf00      	nop
 80008f4:	3714      	adds	r7, #20
 80008f6:	46bd      	mov	sp, r7
 80008f8:	f85d 7b04 	ldr.w	r7, [sp], #4
 80008fc:	4770      	bx	lr
	...

08000900 <RCC_AHB1PeriphClockCmd>:
  * @param  NewState: new state of the specified peripheral clock.
  *          This parameter can be: ENABLE or DISABLE.
  * @retval None
  */
void RCC_AHB1PeriphClockCmd(uint32_t RCC_AHB1Periph, FunctionalState NewState)
{
 8000900:	b480      	push	{r7}
 8000902:	b083      	sub	sp, #12
 8000904:	af00      	add	r7, sp, #0
 8000906:	6078      	str	r0, [r7, #4]
 8000908:	460b      	mov	r3, r1
 800090a:	70fb      	strb	r3, [r7, #3]
  /* Check the parameters */
  assert_param(IS_RCC_AHB1_CLOCK_PERIPH(RCC_AHB1Periph));

  assert_param(IS_FUNCTIONAL_STATE(NewState));
  if (NewState != DISABLE)
 800090c:	78fb      	ldrb	r3, [r7, #3]
 800090e:	2b00      	cmp	r3, #0
 8000910:	d006      	beq.n	8000920 <RCC_AHB1PeriphClockCmd+0x20>
  {
    RCC->AHB1ENR |= RCC_AHB1Periph;
 8000912:	490a      	ldr	r1, [pc, #40]	; (800093c <RCC_AHB1PeriphClockCmd+0x3c>)
 8000914:	4b09      	ldr	r3, [pc, #36]	; (800093c <RCC_AHB1PeriphClockCmd+0x3c>)
 8000916:	6b1a      	ldr	r2, [r3, #48]	; 0x30
 8000918:	687b      	ldr	r3, [r7, #4]
 800091a:	4313      	orrs	r3, r2
 800091c:	630b      	str	r3, [r1, #48]	; 0x30
  }
  else
  {
    RCC->AHB1ENR &= ~RCC_AHB1Periph;
  }
}
 800091e:	e006      	b.n	800092e <RCC_AHB1PeriphClockCmd+0x2e>
    RCC->AHB1ENR &= ~RCC_AHB1Periph;
 8000920:	4906      	ldr	r1, [pc, #24]	; (800093c <RCC_AHB1PeriphClockCmd+0x3c>)
 8000922:	4b06      	ldr	r3, [pc, #24]	; (800093c <RCC_AHB1PeriphClockCmd+0x3c>)
 8000924:	6b1a      	ldr	r2, [r3, #48]	; 0x30
 8000926:	687b      	ldr	r3, [r7, #4]
 8000928:	43db      	mvns	r3, r3
 800092a:	4013      	ands	r3, r2
 800092c:	630b      	str	r3, [r1, #48]	; 0x30
}
 800092e:	bf00      	nop
 8000930:	370c      	adds	r7, #12
 8000932:	46bd      	mov	sp, r7
 8000934:	f85d 7b04 	ldr.w	r7, [sp], #4
 8000938:	4770      	bx	lr
 800093a:	bf00      	nop
 800093c:	40023800 	.word	0x40023800

08000940 <RCC_APB1PeriphClockCmd>:
  * @param  NewState: new state of the specified peripheral clock.
  *          This parameter can be: ENABLE or DISABLE.
  * @retval None
  */
void RCC_APB1PeriphClockCmd(uint32_t RCC_APB1Periph, FunctionalState NewState)
{
 8000940:	b480      	push	{r7}
 8000942:	b083      	sub	sp, #12
 8000944:	af00      	add	r7, sp, #0
 8000946:	6078      	str	r0, [r7, #4]
 8000948:	460b      	mov	r3, r1
 800094a:	70fb      	strb	r3, [r7, #3]
  /* Check the parameters */
  assert_param(IS_RCC_APB1_PERIPH(RCC_APB1Periph));  
  assert_param(IS_FUNCTIONAL_STATE(NewState));

  if (NewState != DISABLE)
 800094c:	78fb      	ldrb	r3, [r7, #3]
 800094e:	2b00      	cmp	r3, #0
 8000950:	d006      	beq.n	8000960 <RCC_APB1PeriphClockCmd+0x20>
  {
    RCC->APB1ENR |= RCC_APB1Periph;
 8000952:	490a      	ldr	r1, [pc, #40]	; (800097c <RCC_APB1PeriphClockCmd+0x3c>)
 8000954:	4b09      	ldr	r3, [pc, #36]	; (800097c <RCC_APB1PeriphClockCmd+0x3c>)
 8000956:	6c1a      	ldr	r2, [r3, #64]	; 0x40
 8000958:	687b      	ldr	r3, [r7, #4]
 800095a:	4313      	orrs	r3, r2
 800095c:	640b      	str	r3, [r1, #64]	; 0x40
  }
  else
  {
    RCC->APB1ENR &= ~RCC_APB1Periph;
  }
}
 800095e:	e006      	b.n	800096e <RCC_APB1PeriphClockCmd+0x2e>
    RCC->APB1ENR &= ~RCC_APB1Periph;
 8000960:	4906      	ldr	r1, [pc, #24]	; (800097c <RCC_APB1PeriphClockCmd+0x3c>)
 8000962:	4b06      	ldr	r3, [pc, #24]	; (800097c <RCC_APB1PeriphClockCmd+0x3c>)
 8000964:	6c1a      	ldr	r2, [r3, #64]	; 0x40
 8000966:	687b      	ldr	r3, [r7, #4]
 8000968:	43db      	mvns	r3, r3
 800096a:	4013      	ands	r3, r2
 800096c:	640b      	str	r3, [r1, #64]	; 0x40
}
 800096e:	bf00      	nop
 8000970:	370c      	adds	r7, #12
 8000972:	46bd      	mov	sp, r7
 8000974:	f85d 7b04 	ldr.w	r7, [sp], #4
 8000978:	4770      	bx	lr
 800097a:	bf00      	nop
 800097c:	40023800 	.word	0x40023800

08000980 <RCC_APB2PeriphClockCmd>:
  * @param  NewState: new state of the specified peripheral clock.
  *          This parameter can be: ENABLE or DISABLE.
  * @retval None
  */
void RCC_APB2PeriphClockCmd(uint32_t RCC_APB2Periph, FunctionalState NewState)
{
 8000980:	b480      	push	{r7}
 8000982:	b083      	sub	sp, #12
 8000984:	af00      	add	r7, sp, #0
 8000986:	6078      	str	r0, [r7, #4]
 8000988:	460b      	mov	r3, r1
 800098a:	70fb      	strb	r3, [r7, #3]
  /* Check the parameters */
  assert_param(IS_RCC_APB2_PERIPH(RCC_APB2Periph));
  assert_param(IS_FUNCTIONAL_STATE(NewState));

  if (NewState != DISABLE)
 800098c:	78fb      	ldrb	r3, [r7, #3]
 800098e:	2b00      	cmp	r3, #0
 8000990:	d006      	beq.n	80009a0 <RCC_APB2PeriphClockCmd+0x20>
  {
    RCC->APB2ENR |= RCC_APB2Periph;
 8000992:	490a      	ldr	r1, [pc, #40]	; (80009bc <RCC_APB2PeriphClockCmd+0x3c>)
 8000994:	4b09      	ldr	r3, [pc, #36]	; (80009bc <RCC_APB2PeriphClockCmd+0x3c>)
 8000996:	6c5a      	ldr	r2, [r3, #68]	; 0x44
 8000998:	687b      	ldr	r3, [r7, #4]
 800099a:	4313      	orrs	r3, r2
 800099c:	644b      	str	r3, [r1, #68]	; 0x44
  }
  else
  {
    RCC->APB2ENR &= ~RCC_APB2Periph;
  }
}
 800099e:	e006      	b.n	80009ae <RCC_APB2PeriphClockCmd+0x2e>
    RCC->APB2ENR &= ~RCC_APB2Periph;
 80009a0:	4906      	ldr	r1, [pc, #24]	; (80009bc <RCC_APB2PeriphClockCmd+0x3c>)
 80009a2:	4b06      	ldr	r3, [pc, #24]	; (80009bc <RCC_APB2PeriphClockCmd+0x3c>)
 80009a4:	6c5a      	ldr	r2, [r3, #68]	; 0x44
 80009a6:	687b      	ldr	r3, [r7, #4]
 80009a8:	43db      	mvns	r3, r3
 80009aa:	4013      	ands	r3, r2
 80009ac:	644b      	str	r3, [r1, #68]	; 0x44
}
 80009ae:	bf00      	nop
 80009b0:	370c      	adds	r7, #12
 80009b2:	46bd      	mov	sp, r7
 80009b4:	f85d 7b04 	ldr.w	r7, [sp], #4
 80009b8:	4770      	bx	lr
 80009ba:	bf00      	nop
 80009bc:	40023800 	.word	0x40023800

080009c0 <TIM_TimeBaseInit>:
  * @param  TIM_TimeBaseInitStruct: pointer to a TIM_TimeBaseInitTypeDef structure
  *         that contains the configuration information for the specified TIM peripheral.
  * @retval None
  */
void TIM_TimeBaseInit(TIM_TypeDef* TIMx, TIM_TimeBaseInitTypeDef* TIM_TimeBaseInitStruct)
{
 80009c0:	b480      	push	{r7}
 80009c2:	b085      	sub	sp, #20
 80009c4:	af00      	add	r7, sp, #0
 80009c6:	6078      	str	r0, [r7, #4]
 80009c8:	6039      	str	r1, [r7, #0]
  uint16_t tmpcr1 = 0;
 80009ca:	2300      	movs	r3, #0
 80009cc:	81fb      	strh	r3, [r7, #14]
  /* Check the parameters */
  assert_param(IS_TIM_ALL_PERIPH(TIMx)); 
  assert_param(IS_TIM_COUNTER_MODE(TIM_TimeBaseInitStruct->TIM_CounterMode));
  assert_param(IS_TIM_CKD_DIV(TIM_TimeBaseInitStruct->TIM_ClockDivision));

  tmpcr1 = TIMx->CR1;  
 80009ce:	687b      	ldr	r3, [r7, #4]
 80009d0:	881b      	ldrh	r3, [r3, #0]
 80009d2:	81fb      	strh	r3, [r7, #14]

  if((TIMx == TIM1) || (TIMx == TIM8)||
 80009d4:	687b      	ldr	r3, [r7, #4]
 80009d6:	4a29      	ldr	r2, [pc, #164]	; (8000a7c <TIM_TimeBaseInit+0xbc>)
 80009d8:	4293      	cmp	r3, r2
 80009da:	d013      	beq.n	8000a04 <TIM_TimeBaseInit+0x44>
 80009dc:	687b      	ldr	r3, [r7, #4]
 80009de:	4a28      	ldr	r2, [pc, #160]	; (8000a80 <TIM_TimeBaseInit+0xc0>)
 80009e0:	4293      	cmp	r3, r2
 80009e2:	d00f      	beq.n	8000a04 <TIM_TimeBaseInit+0x44>
 80009e4:	687b      	ldr	r3, [r7, #4]
 80009e6:	f1b3 4f80 	cmp.w	r3, #1073741824	; 0x40000000
 80009ea:	d00b      	beq.n	8000a04 <TIM_TimeBaseInit+0x44>
     (TIMx == TIM2) || (TIMx == TIM3)||
 80009ec:	687b      	ldr	r3, [r7, #4]
 80009ee:	4a25      	ldr	r2, [pc, #148]	; (8000a84 <TIM_TimeBaseInit+0xc4>)
 80009f0:	4293      	cmp	r3, r2
 80009f2:	d007      	beq.n	8000a04 <TIM_TimeBaseInit+0x44>
 80009f4:	687b      	ldr	r3, [r7, #4]
 80009f6:	4a24      	ldr	r2, [pc, #144]	; (8000a88 <TIM_TimeBaseInit+0xc8>)
 80009f8:	4293      	cmp	r3, r2
 80009fa:	d003      	beq.n	8000a04 <TIM_TimeBaseInit+0x44>
     (TIMx == TIM4) || (TIMx == TIM5)) 
 80009fc:	687b      	ldr	r3, [r7, #4]
 80009fe:	4a23      	ldr	r2, [pc, #140]	; (8000a8c <TIM_TimeBaseInit+0xcc>)
 8000a00:	4293      	cmp	r3, r2
 8000a02:	d108      	bne.n	8000a16 <TIM_TimeBaseInit+0x56>
  {
    /* Select the Counter Mode */
    tmpcr1 &= (uint16_t)(~(TIM_CR1_DIR | TIM_CR1_CMS));
 8000a04:	89fb      	ldrh	r3, [r7, #14]
 8000a06:	f023 0370 	bic.w	r3, r3, #112	; 0x70
 8000a0a:	81fb      	strh	r3, [r7, #14]
    tmpcr1 |= (uint32_t)TIM_TimeBaseInitStruct->TIM_CounterMode;
 8000a0c:	683b      	ldr	r3, [r7, #0]
 8000a0e:	885a      	ldrh	r2, [r3, #2]
 8000a10:	89fb      	ldrh	r3, [r7, #14]
 8000a12:	4313      	orrs	r3, r2
 8000a14:	81fb      	strh	r3, [r7, #14]
  }
 
  if((TIMx != TIM6) && (TIMx != TIM7))
 8000a16:	687b      	ldr	r3, [r7, #4]
 8000a18:	4a1d      	ldr	r2, [pc, #116]	; (8000a90 <TIM_TimeBaseInit+0xd0>)
 8000a1a:	4293      	cmp	r3, r2
 8000a1c:	d00c      	beq.n	8000a38 <TIM_TimeBaseInit+0x78>
 8000a1e:	687b      	ldr	r3, [r7, #4]
 8000a20:	4a1c      	ldr	r2, [pc, #112]	; (8000a94 <TIM_TimeBaseInit+0xd4>)
 8000a22:	4293      	cmp	r3, r2
 8000a24:	d008      	beq.n	8000a38 <TIM_TimeBaseInit+0x78>
  {
    /* Set the clock division */
    tmpcr1 &=  (uint16_t)(~TIM_CR1_CKD);
 8000a26:	89fb      	ldrh	r3, [r7, #14]
 8000a28:	f423 7340 	bic.w	r3, r3, #768	; 0x300
 8000a2c:	81fb      	strh	r3, [r7, #14]
    tmpcr1 |= (uint32_t)TIM_TimeBaseInitStruct->TIM_ClockDivision;
 8000a2e:	683b      	ldr	r3, [r7, #0]
 8000a30:	891a      	ldrh	r2, [r3, #8]
 8000a32:	89fb      	ldrh	r3, [r7, #14]
 8000a34:	4313      	orrs	r3, r2
 8000a36:	81fb      	strh	r3, [r7, #14]
  }

  TIMx->CR1 = tmpcr1;
 8000a38:	687b      	ldr	r3, [r7, #4]
 8000a3a:	89fa      	ldrh	r2, [r7, #14]
 8000a3c:	801a      	strh	r2, [r3, #0]

  /* Set the Autoreload value */
  TIMx->ARR = TIM_TimeBaseInitStruct->TIM_Period ;
 8000a3e:	683b      	ldr	r3, [r7, #0]
 8000a40:	685a      	ldr	r2, [r3, #4]
 8000a42:	687b      	ldr	r3, [r7, #4]
 8000a44:	62da      	str	r2, [r3, #44]	; 0x2c
 
  /* Set the Prescaler value */
  TIMx->PSC = TIM_TimeBaseInitStruct->TIM_Prescaler;
 8000a46:	683b      	ldr	r3, [r7, #0]
 8000a48:	881a      	ldrh	r2, [r3, #0]
 8000a4a:	687b      	ldr	r3, [r7, #4]
 8000a4c:	851a      	strh	r2, [r3, #40]	; 0x28
    
  if ((TIMx == TIM1) || (TIMx == TIM8))  
 8000a4e:	687b      	ldr	r3, [r7, #4]
 8000a50:	4a0a      	ldr	r2, [pc, #40]	; (8000a7c <TIM_TimeBaseInit+0xbc>)
 8000a52:	4293      	cmp	r3, r2
 8000a54:	d003      	beq.n	8000a5e <TIM_TimeBaseInit+0x9e>
 8000a56:	687b      	ldr	r3, [r7, #4]
 8000a58:	4a09      	ldr	r2, [pc, #36]	; (8000a80 <TIM_TimeBaseInit+0xc0>)
 8000a5a:	4293      	cmp	r3, r2
 8000a5c:	d104      	bne.n	8000a68 <TIM_TimeBaseInit+0xa8>
  {
    /* Set the Repetition Counter value */
    TIMx->RCR = TIM_TimeBaseInitStruct->TIM_RepetitionCounter;
 8000a5e:	683b      	ldr	r3, [r7, #0]
 8000a60:	7a9b      	ldrb	r3, [r3, #10]
 8000a62:	b29a      	uxth	r2, r3
 8000a64:	687b      	ldr	r3, [r7, #4]
 8000a66:	861a      	strh	r2, [r3, #48]	; 0x30
  }

  /* Generate an update event to reload the Prescaler 
     and the repetition counter(only for TIM1 and TIM8) value immediatly */
  TIMx->EGR = TIM_PSCReloadMode_Immediate;          
 8000a68:	687b      	ldr	r3, [r7, #4]
 8000a6a:	2201      	movs	r2, #1
 8000a6c:	829a      	strh	r2, [r3, #20]
}
 8000a6e:	bf00      	nop
 8000a70:	3714      	adds	r7, #20
 8000a72:	46bd      	mov	sp, r7
 8000a74:	f85d 7b04 	ldr.w	r7, [sp], #4
 8000a78:	4770      	bx	lr
 8000a7a:	bf00      	nop
 8000a7c:	40010000 	.word	0x40010000
 8000a80:	40010400 	.word	0x40010400
 8000a84:	40000400 	.word	0x40000400
 8000a88:	40000800 	.word	0x40000800
 8000a8c:	40000c00 	.word	0x40000c00
 8000a90:	40001000 	.word	0x40001000
 8000a94:	40001400 	.word	0x40001400

08000a98 <TIM_ARRPreloadConfig>:
  * @param  NewState: new state of the TIMx peripheral Preload register
  *          This parameter can be: ENABLE or DISABLE.
  * @retval None
  */
void TIM_ARRPreloadConfig(TIM_TypeDef* TIMx, FunctionalState NewState)
{
 8000a98:	b480      	push	{r7}
 8000a9a:	b083      	sub	sp, #12
 8000a9c:	af00      	add	r7, sp, #0
 8000a9e:	6078      	str	r0, [r7, #4]
 8000aa0:	460b      	mov	r3, r1
 8000aa2:	70fb      	strb	r3, [r7, #3]
  /* Check the parameters */
  assert_param(IS_TIM_ALL_PERIPH(TIMx));
  assert_param(IS_FUNCTIONAL_STATE(NewState));

  if (NewState != DISABLE)
 8000aa4:	78fb      	ldrb	r3, [r7, #3]
 8000aa6:	2b00      	cmp	r3, #0
 8000aa8:	d008      	beq.n	8000abc <TIM_ARRPreloadConfig+0x24>
  {
    /* Set the ARR Preload Bit */
    TIMx->CR1 |= TIM_CR1_ARPE;
 8000aaa:	687b      	ldr	r3, [r7, #4]
 8000aac:	881b      	ldrh	r3, [r3, #0]
 8000aae:	b29b      	uxth	r3, r3
 8000ab0:	f043 0380 	orr.w	r3, r3, #128	; 0x80
 8000ab4:	b29a      	uxth	r2, r3
 8000ab6:	687b      	ldr	r3, [r7, #4]
 8000ab8:	801a      	strh	r2, [r3, #0]
  else
  {
    /* Reset the ARR Preload Bit */
    TIMx->CR1 &= (uint16_t)~TIM_CR1_ARPE;
  }
}
 8000aba:	e007      	b.n	8000acc <TIM_ARRPreloadConfig+0x34>
    TIMx->CR1 &= (uint16_t)~TIM_CR1_ARPE;
 8000abc:	687b      	ldr	r3, [r7, #4]
 8000abe:	881b      	ldrh	r3, [r3, #0]
 8000ac0:	b29b      	uxth	r3, r3
 8000ac2:	f023 0380 	bic.w	r3, r3, #128	; 0x80
 8000ac6:	b29a      	uxth	r2, r3
 8000ac8:	687b      	ldr	r3, [r7, #4]
 8000aca:	801a      	strh	r2, [r3, #0]
}
 8000acc:	bf00      	nop
 8000ace:	370c      	adds	r7, #12
 8000ad0:	46bd      	mov	sp, r7
 8000ad2:	f85d 7b04 	ldr.w	r7, [sp], #4
 8000ad6:	4770      	bx	lr

08000ad8 <TIM_Cmd>:
  * @param  NewState: new state of the TIMx peripheral.
  *          This parameter can be: ENABLE or DISABLE.
  * @retval None
  */
void TIM_Cmd(TIM_TypeDef* TIMx, FunctionalState NewState)
{
 8000ad8:	b480      	push	{r7}
 8000ada:	b083      	sub	sp, #12
 8000adc:	af00      	add	r7, sp, #0
 8000ade:	6078      	str	r0, [r7, #4]
 8000ae0:	460b      	mov	r3, r1
 8000ae2:	70fb      	strb	r3, [r7, #3]
  /* Check the parameters */
  assert_param(IS_TIM_ALL_PERIPH(TIMx)); 
  assert_param(IS_FUNCTIONAL_STATE(NewState));
  
  if (NewState != DISABLE)
 8000ae4:	78fb      	ldrb	r3, [r7, #3]
 8000ae6:	2b00      	cmp	r3, #0
 8000ae8:	d008      	beq.n	8000afc <TIM_Cmd+0x24>
  {
    /* Enable the TIM Counter */
    TIMx->CR1 |= TIM_CR1_CEN;
 8000aea:	687b      	ldr	r3, [r7, #4]
 8000aec:	881b      	ldrh	r3, [r3, #0]
 8000aee:	b29b      	uxth	r3, r3
 8000af0:	f043 0301 	orr.w	r3, r3, #1
 8000af4:	b29a      	uxth	r2, r3
 8000af6:	687b      	ldr	r3, [r7, #4]
 8000af8:	801a      	strh	r2, [r3, #0]
  else
  {
    /* Disable the TIM Counter */
    TIMx->CR1 &= (uint16_t)~TIM_CR1_CEN;
  }
}
 8000afa:	e007      	b.n	8000b0c <TIM_Cmd+0x34>
    TIMx->CR1 &= (uint16_t)~TIM_CR1_CEN;
 8000afc:	687b      	ldr	r3, [r7, #4]
 8000afe:	881b      	ldrh	r3, [r3, #0]
 8000b00:	b29b      	uxth	r3, r3
 8000b02:	f023 0301 	bic.w	r3, r3, #1
 8000b06:	b29a      	uxth	r2, r3
 8000b08:	687b      	ldr	r3, [r7, #4]
 8000b0a:	801a      	strh	r2, [r3, #0]
}
 8000b0c:	bf00      	nop
 8000b0e:	370c      	adds	r7, #12
 8000b10:	46bd      	mov	sp, r7
 8000b12:	f85d 7b04 	ldr.w	r7, [sp], #4
 8000b16:	4770      	bx	lr

08000b18 <TIM_OC3Init>:
  * @param  TIM_OCInitStruct: pointer to a TIM_OCInitTypeDef structure that contains
  *         the configuration information for the specified TIM peripheral.
  * @retval None
  */
void TIM_OC3Init(TIM_TypeDef* TIMx, TIM_OCInitTypeDef* TIM_OCInitStruct)
{
 8000b18:	b480      	push	{r7}
 8000b1a:	b085      	sub	sp, #20
 8000b1c:	af00      	add	r7, sp, #0
 8000b1e:	6078      	str	r0, [r7, #4]
 8000b20:	6039      	str	r1, [r7, #0]
  uint16_t tmpccmrx = 0, tmpccer = 0, tmpcr2 = 0;
 8000b22:	2300      	movs	r3, #0
 8000b24:	817b      	strh	r3, [r7, #10]
 8000b26:	2300      	movs	r3, #0
 8000b28:	81fb      	strh	r3, [r7, #14]
 8000b2a:	2300      	movs	r3, #0
 8000b2c:	81bb      	strh	r3, [r7, #12]
  assert_param(IS_TIM_OC_MODE(TIM_OCInitStruct->TIM_OCMode));
  assert_param(IS_TIM_OUTPUT_STATE(TIM_OCInitStruct->TIM_OutputState));
  assert_param(IS_TIM_OC_POLARITY(TIM_OCInitStruct->TIM_OCPolarity));   

  /* Disable the Channel 3: Reset the CC2E Bit */
  TIMx->CCER &= (uint16_t)~TIM_CCER_CC3E;
 8000b2e:	687b      	ldr	r3, [r7, #4]
 8000b30:	8c1b      	ldrh	r3, [r3, #32]
 8000b32:	b29b      	uxth	r3, r3
 8000b34:	f423 7380 	bic.w	r3, r3, #256	; 0x100
 8000b38:	b29a      	uxth	r2, r3
 8000b3a:	687b      	ldr	r3, [r7, #4]
 8000b3c:	841a      	strh	r2, [r3, #32]
  
  /* Get the TIMx CCER register value */
  tmpccer = TIMx->CCER;
 8000b3e:	687b      	ldr	r3, [r7, #4]
 8000b40:	8c1b      	ldrh	r3, [r3, #32]
 8000b42:	81fb      	strh	r3, [r7, #14]
  /* Get the TIMx CR2 register value */
  tmpcr2 =  TIMx->CR2;
 8000b44:	687b      	ldr	r3, [r7, #4]
 8000b46:	889b      	ldrh	r3, [r3, #4]
 8000b48:	81bb      	strh	r3, [r7, #12]
  
  /* Get the TIMx CCMR2 register value */
  tmpccmrx = TIMx->CCMR2;
 8000b4a:	687b      	ldr	r3, [r7, #4]
 8000b4c:	8b9b      	ldrh	r3, [r3, #28]
 8000b4e:	817b      	strh	r3, [r7, #10]
    
  /* Reset the Output Compare mode and Capture/Compare selection Bits */
  tmpccmrx &= (uint16_t)~TIM_CCMR2_OC3M;
 8000b50:	897b      	ldrh	r3, [r7, #10]
 8000b52:	f023 0370 	bic.w	r3, r3, #112	; 0x70
 8000b56:	817b      	strh	r3, [r7, #10]
  tmpccmrx &= (uint16_t)~TIM_CCMR2_CC3S;  
 8000b58:	897b      	ldrh	r3, [r7, #10]
 8000b5a:	f023 0303 	bic.w	r3, r3, #3
 8000b5e:	817b      	strh	r3, [r7, #10]
  /* Select the Output Compare Mode */
  tmpccmrx |= TIM_OCInitStruct->TIM_OCMode;
 8000b60:	683b      	ldr	r3, [r7, #0]
 8000b62:	881a      	ldrh	r2, [r3, #0]
 8000b64:	897b      	ldrh	r3, [r7, #10]
 8000b66:	4313      	orrs	r3, r2
 8000b68:	817b      	strh	r3, [r7, #10]
  
  /* Reset the Output Polarity level */
  tmpccer &= (uint16_t)~TIM_CCER_CC3P;
 8000b6a:	89fb      	ldrh	r3, [r7, #14]
 8000b6c:	f423 7300 	bic.w	r3, r3, #512	; 0x200
 8000b70:	81fb      	strh	r3, [r7, #14]
  /* Set the Output Compare Polarity */
  tmpccer |= (uint16_t)(TIM_OCInitStruct->TIM_OCPolarity << 8);
 8000b72:	683b      	ldr	r3, [r7, #0]
 8000b74:	899b      	ldrh	r3, [r3, #12]
 8000b76:	021b      	lsls	r3, r3, #8
 8000b78:	b29a      	uxth	r2, r3
 8000b7a:	89fb      	ldrh	r3, [r7, #14]
 8000b7c:	4313      	orrs	r3, r2
 8000b7e:	81fb      	strh	r3, [r7, #14]
  
  /* Set the Output State */
  tmpccer |= (uint16_t)(TIM_OCInitStruct->TIM_OutputState << 8);
 8000b80:	683b      	ldr	r3, [r7, #0]
 8000b82:	885b      	ldrh	r3, [r3, #2]
 8000b84:	021b      	lsls	r3, r3, #8
 8000b86:	b29a      	uxth	r2, r3
 8000b88:	89fb      	ldrh	r3, [r7, #14]
 8000b8a:	4313      	orrs	r3, r2
 8000b8c:	81fb      	strh	r3, [r7, #14]
    
  if((TIMx == TIM1) || (TIMx == TIM8))
 8000b8e:	687b      	ldr	r3, [r7, #4]
 8000b90:	4a22      	ldr	r2, [pc, #136]	; (8000c1c <TIM_OC3Init+0x104>)
 8000b92:	4293      	cmp	r3, r2
 8000b94:	d003      	beq.n	8000b9e <TIM_OC3Init+0x86>
 8000b96:	687b      	ldr	r3, [r7, #4]
 8000b98:	4a21      	ldr	r2, [pc, #132]	; (8000c20 <TIM_OC3Init+0x108>)
 8000b9a:	4293      	cmp	r3, r2
 8000b9c:	d12b      	bne.n	8000bf6 <TIM_OC3Init+0xde>
    assert_param(IS_TIM_OCN_POLARITY(TIM_OCInitStruct->TIM_OCNPolarity));
    assert_param(IS_TIM_OCNIDLE_STATE(TIM_OCInitStruct->TIM_OCNIdleState));
    assert_param(IS_TIM_OCIDLE_STATE(TIM_OCInitStruct->TIM_OCIdleState));
    
    /* Reset the Output N Polarity level */
    tmpccer &= (uint16_t)~TIM_CCER_CC3NP;
 8000b9e:	89fb      	ldrh	r3, [r7, #14]
 8000ba0:	f423 6300 	bic.w	r3, r3, #2048	; 0x800
 8000ba4:	81fb      	strh	r3, [r7, #14]
    /* Set the Output N Polarity */
    tmpccer |= (uint16_t)(TIM_OCInitStruct->TIM_OCNPolarity << 8);
 8000ba6:	683b      	ldr	r3, [r7, #0]
 8000ba8:	89db      	ldrh	r3, [r3, #14]
 8000baa:	021b      	lsls	r3, r3, #8
 8000bac:	b29a      	uxth	r2, r3
 8000bae:	89fb      	ldrh	r3, [r7, #14]
 8000bb0:	4313      	orrs	r3, r2
 8000bb2:	81fb      	strh	r3, [r7, #14]
    /* Reset the Output N State */
    tmpccer &= (uint16_t)~TIM_CCER_CC3NE;
 8000bb4:	89fb      	ldrh	r3, [r7, #14]
 8000bb6:	f423 6380 	bic.w	r3, r3, #1024	; 0x400
 8000bba:	81fb      	strh	r3, [r7, #14]
    
    /* Set the Output N State */
    tmpccer |= (uint16_t)(TIM_OCInitStruct->TIM_OutputNState << 8);
 8000bbc:	683b      	ldr	r3, [r7, #0]
 8000bbe:	889b      	ldrh	r3, [r3, #4]
 8000bc0:	021b      	lsls	r3, r3, #8
 8000bc2:	b29a      	uxth	r2, r3
 8000bc4:	89fb      	ldrh	r3, [r7, #14]
 8000bc6:	4313      	orrs	r3, r2
 8000bc8:	81fb      	strh	r3, [r7, #14]
    /* Reset the Output Compare and Output Compare N IDLE State */
    tmpcr2 &= (uint16_t)~TIM_CR2_OIS3;
 8000bca:	89bb      	ldrh	r3, [r7, #12]
 8000bcc:	f423 5380 	bic.w	r3, r3, #4096	; 0x1000
 8000bd0:	81bb      	strh	r3, [r7, #12]
    tmpcr2 &= (uint16_t)~TIM_CR2_OIS3N;
 8000bd2:	89bb      	ldrh	r3, [r7, #12]
 8000bd4:	f423 5300 	bic.w	r3, r3, #8192	; 0x2000
 8000bd8:	81bb      	strh	r3, [r7, #12]
    /* Set the Output Idle state */
    tmpcr2 |= (uint16_t)(TIM_OCInitStruct->TIM_OCIdleState << 4);
 8000bda:	683b      	ldr	r3, [r7, #0]
 8000bdc:	8a1b      	ldrh	r3, [r3, #16]
 8000bde:	011b      	lsls	r3, r3, #4
 8000be0:	b29a      	uxth	r2, r3
 8000be2:	89bb      	ldrh	r3, [r7, #12]
 8000be4:	4313      	orrs	r3, r2
 8000be6:	81bb      	strh	r3, [r7, #12]
    /* Set the Output N Idle state */
    tmpcr2 |= (uint16_t)(TIM_OCInitStruct->TIM_OCNIdleState << 4);
 8000be8:	683b      	ldr	r3, [r7, #0]
 8000bea:	8a5b      	ldrh	r3, [r3, #18]
 8000bec:	011b      	lsls	r3, r3, #4
 8000bee:	b29a      	uxth	r2, r3
 8000bf0:	89bb      	ldrh	r3, [r7, #12]
 8000bf2:	4313      	orrs	r3, r2
 8000bf4:	81bb      	strh	r3, [r7, #12]
  }
  /* Write to TIMx CR2 */
  TIMx->CR2 = tmpcr2;
 8000bf6:	687b      	ldr	r3, [r7, #4]
 8000bf8:	89ba      	ldrh	r2, [r7, #12]
 8000bfa:	809a      	strh	r2, [r3, #4]
  
  /* Write to TIMx CCMR2 */
  TIMx->CCMR2 = tmpccmrx;
 8000bfc:	687b      	ldr	r3, [r7, #4]
 8000bfe:	897a      	ldrh	r2, [r7, #10]
 8000c00:	839a      	strh	r2, [r3, #28]
  
  /* Set the Capture Compare Register value */
  TIMx->CCR3 = TIM_OCInitStruct->TIM_Pulse;
 8000c02:	683b      	ldr	r3, [r7, #0]
 8000c04:	689a      	ldr	r2, [r3, #8]
 8000c06:	687b      	ldr	r3, [r7, #4]
 8000c08:	63da      	str	r2, [r3, #60]	; 0x3c
  
  /* Write to TIMx CCER */
  TIMx->CCER = tmpccer;
 8000c0a:	687b      	ldr	r3, [r7, #4]
 8000c0c:	89fa      	ldrh	r2, [r7, #14]
 8000c0e:	841a      	strh	r2, [r3, #32]
}
 8000c10:	bf00      	nop
 8000c12:	3714      	adds	r7, #20
 8000c14:	46bd      	mov	sp, r7
 8000c16:	f85d 7b04 	ldr.w	r7, [sp], #4
 8000c1a:	4770      	bx	lr
 8000c1c:	40010000 	.word	0x40010000
 8000c20:	40010400 	.word	0x40010400

08000c24 <TIM_OC4Init>:
  * @param  TIM_OCInitStruct: pointer to a TIM_OCInitTypeDef structure that contains
  *         the configuration information for the specified TIM peripheral.
  * @retval None
  */
void TIM_OC4Init(TIM_TypeDef* TIMx, TIM_OCInitTypeDef* TIM_OCInitStruct)
{
 8000c24:	b480      	push	{r7}
 8000c26:	b085      	sub	sp, #20
 8000c28:	af00      	add	r7, sp, #0
 8000c2a:	6078      	str	r0, [r7, #4]
 8000c2c:	6039      	str	r1, [r7, #0]
  uint16_t tmpccmrx = 0, tmpccer = 0, tmpcr2 = 0;
 8000c2e:	2300      	movs	r3, #0
 8000c30:	81bb      	strh	r3, [r7, #12]
 8000c32:	2300      	movs	r3, #0
 8000c34:	817b      	strh	r3, [r7, #10]
 8000c36:	2300      	movs	r3, #0
 8000c38:	81fb      	strh	r3, [r7, #14]
  assert_param(IS_TIM_OC_MODE(TIM_OCInitStruct->TIM_OCMode));
  assert_param(IS_TIM_OUTPUT_STATE(TIM_OCInitStruct->TIM_OutputState));
  assert_param(IS_TIM_OC_POLARITY(TIM_OCInitStruct->TIM_OCPolarity));   

  /* Disable the Channel 4: Reset the CC4E Bit */
  TIMx->CCER &= (uint16_t)~TIM_CCER_CC4E;
 8000c3a:	687b      	ldr	r3, [r7, #4]
 8000c3c:	8c1b      	ldrh	r3, [r3, #32]
 8000c3e:	b29b      	uxth	r3, r3
 8000c40:	f423 5380 	bic.w	r3, r3, #4096	; 0x1000
 8000c44:	b29a      	uxth	r2, r3
 8000c46:	687b      	ldr	r3, [r7, #4]
 8000c48:	841a      	strh	r2, [r3, #32]
  
  /* Get the TIMx CCER register value */
  tmpccer = TIMx->CCER;
 8000c4a:	687b      	ldr	r3, [r7, #4]
 8000c4c:	8c1b      	ldrh	r3, [r3, #32]
 8000c4e:	817b      	strh	r3, [r7, #10]
  /* Get the TIMx CR2 register value */
  tmpcr2 =  TIMx->CR2;
 8000c50:	687b      	ldr	r3, [r7, #4]
 8000c52:	889b      	ldrh	r3, [r3, #4]
 8000c54:	81fb      	strh	r3, [r7, #14]
  
  /* Get the TIMx CCMR2 register value */
  tmpccmrx = TIMx->CCMR2;
 8000c56:	687b      	ldr	r3, [r7, #4]
 8000c58:	8b9b      	ldrh	r3, [r3, #28]
 8000c5a:	81bb      	strh	r3, [r7, #12]
    
  /* Reset the Output Compare mode and Capture/Compare selection Bits */
  tmpccmrx &= (uint16_t)~TIM_CCMR2_OC4M;
 8000c5c:	89bb      	ldrh	r3, [r7, #12]
 8000c5e:	f423 43e0 	bic.w	r3, r3, #28672	; 0x7000
 8000c62:	81bb      	strh	r3, [r7, #12]
  tmpccmrx &= (uint16_t)~TIM_CCMR2_CC4S;
 8000c64:	89bb      	ldrh	r3, [r7, #12]
 8000c66:	f423 7340 	bic.w	r3, r3, #768	; 0x300
 8000c6a:	81bb      	strh	r3, [r7, #12]
  
  /* Select the Output Compare Mode */
  tmpccmrx |= (uint16_t)(TIM_OCInitStruct->TIM_OCMode << 8);
 8000c6c:	683b      	ldr	r3, [r7, #0]
 8000c6e:	881b      	ldrh	r3, [r3, #0]
 8000c70:	021b      	lsls	r3, r3, #8
 8000c72:	b29a      	uxth	r2, r3
 8000c74:	89bb      	ldrh	r3, [r7, #12]
 8000c76:	4313      	orrs	r3, r2
 8000c78:	81bb      	strh	r3, [r7, #12]
  
  /* Reset the Output Polarity level */
  tmpccer &= (uint16_t)~TIM_CCER_CC4P;
 8000c7a:	897b      	ldrh	r3, [r7, #10]
 8000c7c:	f423 5300 	bic.w	r3, r3, #8192	; 0x2000
 8000c80:	817b      	strh	r3, [r7, #10]
  /* Set the Output Compare Polarity */
  tmpccer |= (uint16_t)(TIM_OCInitStruct->TIM_OCPolarity << 12);
 8000c82:	683b      	ldr	r3, [r7, #0]
 8000c84:	899b      	ldrh	r3, [r3, #12]
 8000c86:	031b      	lsls	r3, r3, #12
 8000c88:	b29a      	uxth	r2, r3
 8000c8a:	897b      	ldrh	r3, [r7, #10]
 8000c8c:	4313      	orrs	r3, r2
 8000c8e:	817b      	strh	r3, [r7, #10]
  
  /* Set the Output State */
  tmpccer |= (uint16_t)(TIM_OCInitStruct->TIM_OutputState << 12);
 8000c90:	683b      	ldr	r3, [r7, #0]
 8000c92:	885b      	ldrh	r3, [r3, #2]
 8000c94:	031b      	lsls	r3, r3, #12
 8000c96:	b29a      	uxth	r2, r3
 8000c98:	897b      	ldrh	r3, [r7, #10]
 8000c9a:	4313      	orrs	r3, r2
 8000c9c:	817b      	strh	r3, [r7, #10]
  
  if((TIMx == TIM1) || (TIMx == TIM8))
 8000c9e:	687b      	ldr	r3, [r7, #4]
 8000ca0:	4a12      	ldr	r2, [pc, #72]	; (8000cec <TIM_OC4Init+0xc8>)
 8000ca2:	4293      	cmp	r3, r2
 8000ca4:	d003      	beq.n	8000cae <TIM_OC4Init+0x8a>
 8000ca6:	687b      	ldr	r3, [r7, #4]
 8000ca8:	4a11      	ldr	r2, [pc, #68]	; (8000cf0 <TIM_OC4Init+0xcc>)
 8000caa:	4293      	cmp	r3, r2
 8000cac:	d10a      	bne.n	8000cc4 <TIM_OC4Init+0xa0>
  {
    assert_param(IS_TIM_OCIDLE_STATE(TIM_OCInitStruct->TIM_OCIdleState));
    /* Reset the Output Compare IDLE State */
    tmpcr2 &=(uint16_t) ~TIM_CR2_OIS4;
 8000cae:	89fb      	ldrh	r3, [r7, #14]
 8000cb0:	f423 4380 	bic.w	r3, r3, #16384	; 0x4000
 8000cb4:	81fb      	strh	r3, [r7, #14]
    /* Set the Output Idle state */
    tmpcr2 |= (uint16_t)(TIM_OCInitStruct->TIM_OCIdleState << 6);
 8000cb6:	683b      	ldr	r3, [r7, #0]
 8000cb8:	8a1b      	ldrh	r3, [r3, #16]
 8000cba:	019b      	lsls	r3, r3, #6
 8000cbc:	b29a      	uxth	r2, r3
 8000cbe:	89fb      	ldrh	r3, [r7, #14]
 8000cc0:	4313      	orrs	r3, r2
 8000cc2:	81fb      	strh	r3, [r7, #14]
  }
  /* Write to TIMx CR2 */
  TIMx->CR2 = tmpcr2;
 8000cc4:	687b      	ldr	r3, [r7, #4]
 8000cc6:	89fa      	ldrh	r2, [r7, #14]
 8000cc8:	809a      	strh	r2, [r3, #4]
  
  /* Write to TIMx CCMR2 */  
  TIMx->CCMR2 = tmpccmrx;
 8000cca:	687b      	ldr	r3, [r7, #4]
 8000ccc:	89ba      	ldrh	r2, [r7, #12]
 8000cce:	839a      	strh	r2, [r3, #28]
    
  /* Set the Capture Compare Register value */
  TIMx->CCR4 = TIM_OCInitStruct->TIM_Pulse;
 8000cd0:	683b      	ldr	r3, [r7, #0]
 8000cd2:	689a      	ldr	r2, [r3, #8]
 8000cd4:	687b      	ldr	r3, [r7, #4]
 8000cd6:	641a      	str	r2, [r3, #64]	; 0x40
  
  /* Write to TIMx CCER */
  TIMx->CCER = tmpccer;
 8000cd8:	687b      	ldr	r3, [r7, #4]
 8000cda:	897a      	ldrh	r2, [r7, #10]
 8000cdc:	841a      	strh	r2, [r3, #32]
}
 8000cde:	bf00      	nop
 8000ce0:	3714      	adds	r7, #20
 8000ce2:	46bd      	mov	sp, r7
 8000ce4:	f85d 7b04 	ldr.w	r7, [sp], #4
 8000ce8:	4770      	bx	lr
 8000cea:	bf00      	nop
 8000cec:	40010000 	.word	0x40010000
 8000cf0:	40010400 	.word	0x40010400

08000cf4 <TIM_OC3PreloadConfig>:
  *            @arg TIM_OCPreload_Enable
  *            @arg TIM_OCPreload_Disable
  * @retval None
  */
void TIM_OC3PreloadConfig(TIM_TypeDef* TIMx, uint16_t TIM_OCPreload)
{
 8000cf4:	b480      	push	{r7}
 8000cf6:	b085      	sub	sp, #20
 8000cf8:	af00      	add	r7, sp, #0
 8000cfa:	6078      	str	r0, [r7, #4]
 8000cfc:	460b      	mov	r3, r1
 8000cfe:	807b      	strh	r3, [r7, #2]
  uint16_t tmpccmr2 = 0;
 8000d00:	2300      	movs	r3, #0
 8000d02:	81fb      	strh	r3, [r7, #14]

  /* Check the parameters */
  assert_param(IS_TIM_LIST3_PERIPH(TIMx));
  assert_param(IS_TIM_OCPRELOAD_STATE(TIM_OCPreload));

  tmpccmr2 = TIMx->CCMR2;
 8000d04:	687b      	ldr	r3, [r7, #4]
 8000d06:	8b9b      	ldrh	r3, [r3, #28]
 8000d08:	81fb      	strh	r3, [r7, #14]

  /* Reset the OC3PE Bit */
  tmpccmr2 &= (uint16_t)(~TIM_CCMR2_OC3PE);
 8000d0a:	89fb      	ldrh	r3, [r7, #14]
 8000d0c:	f023 0308 	bic.w	r3, r3, #8
 8000d10:	81fb      	strh	r3, [r7, #14]

  /* Enable or Disable the Output Compare Preload feature */
  tmpccmr2 |= TIM_OCPreload;
 8000d12:	89fa      	ldrh	r2, [r7, #14]
 8000d14:	887b      	ldrh	r3, [r7, #2]
 8000d16:	4313      	orrs	r3, r2
 8000d18:	81fb      	strh	r3, [r7, #14]

  /* Write to TIMx CCMR2 register */
  TIMx->CCMR2 = tmpccmr2;
 8000d1a:	687b      	ldr	r3, [r7, #4]
 8000d1c:	89fa      	ldrh	r2, [r7, #14]
 8000d1e:	839a      	strh	r2, [r3, #28]
}
 8000d20:	bf00      	nop
 8000d22:	3714      	adds	r7, #20
 8000d24:	46bd      	mov	sp, r7
 8000d26:	f85d 7b04 	ldr.w	r7, [sp], #4
 8000d2a:	4770      	bx	lr

08000d2c <TIM_OC4PreloadConfig>:
  *            @arg TIM_OCPreload_Enable
  *            @arg TIM_OCPreload_Disable
  * @retval None
  */
void TIM_OC4PreloadConfig(TIM_TypeDef* TIMx, uint16_t TIM_OCPreload)
{
 8000d2c:	b480      	push	{r7}
 8000d2e:	b085      	sub	sp, #20
 8000d30:	af00      	add	r7, sp, #0
 8000d32:	6078      	str	r0, [r7, #4]
 8000d34:	460b      	mov	r3, r1
 8000d36:	807b      	strh	r3, [r7, #2]
  uint16_t tmpccmr2 = 0;
 8000d38:	2300      	movs	r3, #0
 8000d3a:	81fb      	strh	r3, [r7, #14]

  /* Check the parameters */
  assert_param(IS_TIM_LIST3_PERIPH(TIMx));
  assert_param(IS_TIM_OCPRELOAD_STATE(TIM_OCPreload));

  tmpccmr2 = TIMx->CCMR2;
 8000d3c:	687b      	ldr	r3, [r7, #4]
 8000d3e:	8b9b      	ldrh	r3, [r3, #28]
 8000d40:	81fb      	strh	r3, [r7, #14]

  /* Reset the OC4PE Bit */
  tmpccmr2 &= (uint16_t)(~TIM_CCMR2_OC4PE);
 8000d42:	89fb      	ldrh	r3, [r7, #14]
 8000d44:	f423 6300 	bic.w	r3, r3, #2048	; 0x800
 8000d48:	81fb      	strh	r3, [r7, #14]

  /* Enable or Disable the Output Compare Preload feature */
  tmpccmr2 |= (uint16_t)(TIM_OCPreload << 8);
 8000d4a:	887b      	ldrh	r3, [r7, #2]
 8000d4c:	021b      	lsls	r3, r3, #8
 8000d4e:	b29a      	uxth	r2, r3
 8000d50:	89fb      	ldrh	r3, [r7, #14]
 8000d52:	4313      	orrs	r3, r2
 8000d54:	81fb      	strh	r3, [r7, #14]

  /* Write to TIMx CCMR2 register */
  TIMx->CCMR2 = tmpccmr2;
 8000d56:	687b      	ldr	r3, [r7, #4]
 8000d58:	89fa      	ldrh	r2, [r7, #14]
 8000d5a:	839a      	strh	r2, [r3, #28]
}
 8000d5c:	bf00      	nop
 8000d5e:	3714      	adds	r7, #20
 8000d60:	46bd      	mov	sp, r7
 8000d62:	f85d 7b04 	ldr.w	r7, [sp], #4
 8000d66:	4770      	bx	lr

08000d68 <TIM_ITConfig>:
  * @param  NewState: new state of the TIM interrupts.
  *          This parameter can be: ENABLE or DISABLE.
  * @retval None
  */
void TIM_ITConfig(TIM_TypeDef* TIMx, uint16_t TIM_IT, FunctionalState NewState)
{  
 8000d68:	b480      	push	{r7}
 8000d6a:	b083      	sub	sp, #12
 8000d6c:	af00      	add	r7, sp, #0
 8000d6e:	6078      	str	r0, [r7, #4]
 8000d70:	460b      	mov	r3, r1
 8000d72:	807b      	strh	r3, [r7, #2]
 8000d74:	4613      	mov	r3, r2
 8000d76:	707b      	strb	r3, [r7, #1]
  /* Check the parameters */
  assert_param(IS_TIM_ALL_PERIPH(TIMx));
  assert_param(IS_TIM_IT(TIM_IT));
  assert_param(IS_FUNCTIONAL_STATE(NewState));
  
  if (NewState != DISABLE)
 8000d78:	787b      	ldrb	r3, [r7, #1]
 8000d7a:	2b00      	cmp	r3, #0
 8000d7c:	d008      	beq.n	8000d90 <TIM_ITConfig+0x28>
  {
    /* Enable the Interrupt sources */
    TIMx->DIER |= TIM_IT;
 8000d7e:	687b      	ldr	r3, [r7, #4]
 8000d80:	899b      	ldrh	r3, [r3, #12]
 8000d82:	b29a      	uxth	r2, r3
 8000d84:	887b      	ldrh	r3, [r7, #2]
 8000d86:	4313      	orrs	r3, r2
 8000d88:	b29a      	uxth	r2, r3
 8000d8a:	687b      	ldr	r3, [r7, #4]
 8000d8c:	819a      	strh	r2, [r3, #12]
  else
  {
    /* Disable the Interrupt sources */
    TIMx->DIER &= (uint16_t)~TIM_IT;
  }
}
 8000d8e:	e009      	b.n	8000da4 <TIM_ITConfig+0x3c>
    TIMx->DIER &= (uint16_t)~TIM_IT;
 8000d90:	687b      	ldr	r3, [r7, #4]
 8000d92:	899b      	ldrh	r3, [r3, #12]
 8000d94:	b29a      	uxth	r2, r3
 8000d96:	887b      	ldrh	r3, [r7, #2]
 8000d98:	43db      	mvns	r3, r3
 8000d9a:	b29b      	uxth	r3, r3
 8000d9c:	4013      	ands	r3, r2
 8000d9e:	b29a      	uxth	r2, r3
 8000da0:	687b      	ldr	r3, [r7, #4]
 8000da2:	819a      	strh	r2, [r3, #12]
}
 8000da4:	bf00      	nop
 8000da6:	370c      	adds	r7, #12
 8000da8:	46bd      	mov	sp, r7
 8000daa:	f85d 7b04 	ldr.w	r7, [sp], #4
 8000dae:	4770      	bx	lr

08000db0 <TIM_ClearITPendingBit>:
  * @note   TIM_IT_COM and TIM_IT_Break are used only with TIM1 and TIM8.
  *      
  * @retval None
  */
void TIM_ClearITPendingBit(TIM_TypeDef* TIMx, uint16_t TIM_IT)
{
 8000db0:	b480      	push	{r7}
 8000db2:	b083      	sub	sp, #12
 8000db4:	af00      	add	r7, sp, #0
 8000db6:	6078      	str	r0, [r7, #4]
 8000db8:	460b      	mov	r3, r1
 8000dba:	807b      	strh	r3, [r7, #2]
  /* Check the parameters */
  assert_param(IS_TIM_ALL_PERIPH(TIMx));

  /* Clear the IT pending Bit */
  TIMx->SR = (uint16_t)~TIM_IT;
 8000dbc:	887b      	ldrh	r3, [r7, #2]
 8000dbe:	43db      	mvns	r3, r3
 8000dc0:	b29a      	uxth	r2, r3
 8000dc2:	687b      	ldr	r3, [r7, #4]
 8000dc4:	821a      	strh	r2, [r3, #16]
}
 8000dc6:	bf00      	nop
 8000dc8:	370c      	adds	r7, #12
 8000dca:	46bd      	mov	sp, r7
 8000dcc:	f85d 7b04 	ldr.w	r7, [sp], #4
 8000dd0:	4770      	bx	lr

08000dd2 <TIM_DMACmd>:
  * @param  NewState: new state of the DMA Request sources.
  *          This parameter can be: ENABLE or DISABLE.
  * @retval None
  */
void TIM_DMACmd(TIM_TypeDef* TIMx, uint16_t TIM_DMASource, FunctionalState NewState)
{ 
 8000dd2:	b480      	push	{r7}
 8000dd4:	b083      	sub	sp, #12
 8000dd6:	af00      	add	r7, sp, #0
 8000dd8:	6078      	str	r0, [r7, #4]
 8000dda:	460b      	mov	r3, r1
 8000ddc:	807b      	strh	r3, [r7, #2]
 8000dde:	4613      	mov	r3, r2
 8000de0:	707b      	strb	r3, [r7, #1]
  /* Check the parameters */
  assert_param(IS_TIM_LIST5_PERIPH(TIMx)); 
  assert_param(IS_TIM_DMA_SOURCE(TIM_DMASource));
  assert_param(IS_FUNCTIONAL_STATE(NewState));
  
  if (NewState != DISABLE)
 8000de2:	787b      	ldrb	r3, [r7, #1]
 8000de4:	2b00      	cmp	r3, #0
 8000de6:	d008      	beq.n	8000dfa <TIM_DMACmd+0x28>
  {
    /* Enable the DMA sources */
    TIMx->DIER |= TIM_DMASource; 
 8000de8:	687b      	ldr	r3, [r7, #4]
 8000dea:	899b      	ldrh	r3, [r3, #12]
 8000dec:	b29a      	uxth	r2, r3
 8000dee:	887b      	ldrh	r3, [r7, #2]
 8000df0:	4313      	orrs	r3, r2
 8000df2:	b29a      	uxth	r2, r3
 8000df4:	687b      	ldr	r3, [r7, #4]
 8000df6:	819a      	strh	r2, [r3, #12]
  else
  {
    /* Disable the DMA sources */
    TIMx->DIER &= (uint16_t)~TIM_DMASource;
  }
}
 8000df8:	e009      	b.n	8000e0e <TIM_DMACmd+0x3c>
    TIMx->DIER &= (uint16_t)~TIM_DMASource;
 8000dfa:	687b      	ldr	r3, [r7, #4]
 8000dfc:	899b      	ldrh	r3, [r3, #12]
 8000dfe:	b29a      	uxth	r2, r3
 8000e00:	887b      	ldrh	r3, [r7, #2]
 8000e02:	43db      	mvns	r3, r3
 8000e04:	b29b      	uxth	r3, r3
 8000e06:	4013      	ands	r3, r2
 8000e08:	b29a      	uxth	r2, r3
 8000e0a:	687b      	ldr	r3, [r7, #4]
 8000e0c:	819a      	strh	r2, [r3, #12]
}
 8000e0e:	bf00      	nop
 8000e10:	370c      	adds	r7, #12
 8000e12:	46bd      	mov	sp, r7
 8000e14:	f85d 7b04 	ldr.w	r7, [sp], #4
 8000e18:	4770      	bx	lr

08000e1a <USART_SendData>:
  *         UART peripheral.
  * @param  Data: the data to transmit.
  * @retval None
  */
void USART_SendData(USART_TypeDef* USARTx, uint16_t Data)
{
 8000e1a:	b480      	push	{r7}
 8000e1c:	b083      	sub	sp, #12
 8000e1e:	af00      	add	r7, sp, #0
 8000e20:	6078      	str	r0, [r7, #4]
 8000e22:	460b      	mov	r3, r1
 8000e24:	807b      	strh	r3, [r7, #2]
  /* Check the parameters */
  assert_param(IS_USART_ALL_PERIPH(USARTx));
  assert_param(IS_USART_DATA(Data)); 
    
  /* Transmit Data */
  USARTx->DR = (Data & (uint16_t)0x01FF);
 8000e26:	887b      	ldrh	r3, [r7, #2]
 8000e28:	f3c3 0308 	ubfx	r3, r3, #0, #9
 8000e2c:	b29a      	uxth	r2, r3
 8000e2e:	687b      	ldr	r3, [r7, #4]
 8000e30:	809a      	strh	r2, [r3, #4]
}
 8000e32:	bf00      	nop
 8000e34:	370c      	adds	r7, #12
 8000e36:	46bd      	mov	sp, r7
 8000e38:	f85d 7b04 	ldr.w	r7, [sp], #4
 8000e3c:	4770      	bx	lr

08000e3e <USART_GetFlagStatus>:
  *            @arg USART_FLAG_FE:   Framing Error flag
  *            @arg USART_FLAG_PE:   Parity Error flag
  * @retval The new state of USART_FLAG (SET or RESET).
  */
FlagStatus USART_GetFlagStatus(USART_TypeDef* USARTx, uint16_t USART_FLAG)
{
 8000e3e:	b480      	push	{r7}
 8000e40:	b085      	sub	sp, #20
 8000e42:	af00      	add	r7, sp, #0
 8000e44:	6078      	str	r0, [r7, #4]
 8000e46:	460b      	mov	r3, r1
 8000e48:	807b      	strh	r3, [r7, #2]
  FlagStatus bitstatus = RESET;
 8000e4a:	2300      	movs	r3, #0
 8000e4c:	73fb      	strb	r3, [r7, #15]
  if (USART_FLAG == USART_FLAG_CTS)
  {
    assert_param(IS_USART_1236_PERIPH(USARTx));
  } 
    
  if ((USARTx->SR & USART_FLAG) != (uint16_t)RESET)
 8000e4e:	687b      	ldr	r3, [r7, #4]
 8000e50:	881b      	ldrh	r3, [r3, #0]
 8000e52:	b29a      	uxth	r2, r3
 8000e54:	887b      	ldrh	r3, [r7, #2]
 8000e56:	4013      	ands	r3, r2
 8000e58:	b29b      	uxth	r3, r3
 8000e5a:	2b00      	cmp	r3, #0
 8000e5c:	d002      	beq.n	8000e64 <USART_GetFlagStatus+0x26>
  {
    bitstatus = SET;
 8000e5e:	2301      	movs	r3, #1
 8000e60:	73fb      	strb	r3, [r7, #15]
 8000e62:	e001      	b.n	8000e68 <USART_GetFlagStatus+0x2a>
  }
  else
  {
    bitstatus = RESET;
 8000e64:	2300      	movs	r3, #0
 8000e66:	73fb      	strb	r3, [r7, #15]
  }
  return bitstatus;
 8000e68:	7bfb      	ldrb	r3, [r7, #15]
}
 8000e6a:	4618      	mov	r0, r3
 8000e6c:	3714      	adds	r7, #20
 8000e6e:	46bd      	mov	sp, r7
 8000e70:	f85d 7b04 	ldr.w	r7, [sp], #4
 8000e74:	4770      	bx	lr

08000e76 <USART_GetITStatus>:
  *            @arg USART_IT_FE:   Framing Error interrupt
  *            @arg USART_IT_PE:   Parity Error interrupt
  * @retval The new state of USART_IT (SET or RESET).
  */
ITStatus USART_GetITStatus(USART_TypeDef* USARTx, uint16_t USART_IT)
{
 8000e76:	b480      	push	{r7}
 8000e78:	b087      	sub	sp, #28
 8000e7a:	af00      	add	r7, sp, #0
 8000e7c:	6078      	str	r0, [r7, #4]
 8000e7e:	460b      	mov	r3, r1
 8000e80:	807b      	strh	r3, [r7, #2]
  uint32_t bitpos = 0x00, itmask = 0x00, usartreg = 0x00;
 8000e82:	2300      	movs	r3, #0
 8000e84:	60fb      	str	r3, [r7, #12]
 8000e86:	2300      	movs	r3, #0
 8000e88:	617b      	str	r3, [r7, #20]
 8000e8a:	2300      	movs	r3, #0
 8000e8c:	60bb      	str	r3, [r7, #8]
  ITStatus bitstatus = RESET;
 8000e8e:	2300      	movs	r3, #0
 8000e90:	74fb      	strb	r3, [r7, #19]
  {
    assert_param(IS_USART_1236_PERIPH(USARTx));
  } 
    
  /* Get the USART register index */
  usartreg = (((uint8_t)USART_IT) >> 0x05);
 8000e92:	887b      	ldrh	r3, [r7, #2]
 8000e94:	b2db      	uxtb	r3, r3
 8000e96:	095b      	lsrs	r3, r3, #5
 8000e98:	b2db      	uxtb	r3, r3
 8000e9a:	60bb      	str	r3, [r7, #8]
  /* Get the interrupt position */
  itmask = USART_IT & IT_MASK;
 8000e9c:	887b      	ldrh	r3, [r7, #2]
 8000e9e:	f003 031f 	and.w	r3, r3, #31
 8000ea2:	617b      	str	r3, [r7, #20]
  itmask = (uint32_t)0x01 << itmask;
 8000ea4:	2201      	movs	r2, #1
 8000ea6:	697b      	ldr	r3, [r7, #20]
 8000ea8:	fa02 f303 	lsl.w	r3, r2, r3
 8000eac:	617b      	str	r3, [r7, #20]
  
  if (usartreg == 0x01) /* The IT  is in CR1 register */
 8000eae:	68bb      	ldr	r3, [r7, #8]
 8000eb0:	2b01      	cmp	r3, #1
 8000eb2:	d107      	bne.n	8000ec4 <USART_GetITStatus+0x4e>
  {
    itmask &= USARTx->CR1;
 8000eb4:	687b      	ldr	r3, [r7, #4]
 8000eb6:	899b      	ldrh	r3, [r3, #12]
 8000eb8:	b29b      	uxth	r3, r3
 8000eba:	461a      	mov	r2, r3
 8000ebc:	697b      	ldr	r3, [r7, #20]
 8000ebe:	4013      	ands	r3, r2
 8000ec0:	617b      	str	r3, [r7, #20]
 8000ec2:	e011      	b.n	8000ee8 <USART_GetITStatus+0x72>
  }
  else if (usartreg == 0x02) /* The IT  is in CR2 register */
 8000ec4:	68bb      	ldr	r3, [r7, #8]
 8000ec6:	2b02      	cmp	r3, #2
 8000ec8:	d107      	bne.n	8000eda <USART_GetITStatus+0x64>
  {
    itmask &= USARTx->CR2;
 8000eca:	687b      	ldr	r3, [r7, #4]
 8000ecc:	8a1b      	ldrh	r3, [r3, #16]
 8000ece:	b29b      	uxth	r3, r3
 8000ed0:	461a      	mov	r2, r3
 8000ed2:	697b      	ldr	r3, [r7, #20]
 8000ed4:	4013      	ands	r3, r2
 8000ed6:	617b      	str	r3, [r7, #20]
 8000ed8:	e006      	b.n	8000ee8 <USART_GetITStatus+0x72>
  }
  else /* The IT  is in CR3 register */
  {
    itmask &= USARTx->CR3;
 8000eda:	687b      	ldr	r3, [r7, #4]
 8000edc:	8a9b      	ldrh	r3, [r3, #20]
 8000ede:	b29b      	uxth	r3, r3
 8000ee0:	461a      	mov	r2, r3
 8000ee2:	697b      	ldr	r3, [r7, #20]
 8000ee4:	4013      	ands	r3, r2
 8000ee6:	617b      	str	r3, [r7, #20]
  }
  
  bitpos = USART_IT >> 0x08;
 8000ee8:	887b      	ldrh	r3, [r7, #2]
 8000eea:	0a1b      	lsrs	r3, r3, #8
 8000eec:	b29b      	uxth	r3, r3
 8000eee:	60fb      	str	r3, [r7, #12]
  bitpos = (uint32_t)0x01 << bitpos;
 8000ef0:	2201      	movs	r2, #1
 8000ef2:	68fb      	ldr	r3, [r7, #12]
 8000ef4:	fa02 f303 	lsl.w	r3, r2, r3
 8000ef8:	60fb      	str	r3, [r7, #12]
  bitpos &= USARTx->SR;
 8000efa:	687b      	ldr	r3, [r7, #4]
 8000efc:	881b      	ldrh	r3, [r3, #0]
 8000efe:	b29b      	uxth	r3, r3
 8000f00:	461a      	mov	r2, r3
 8000f02:	68fb      	ldr	r3, [r7, #12]
 8000f04:	4013      	ands	r3, r2
 8000f06:	60fb      	str	r3, [r7, #12]
  if ((itmask != (uint16_t)RESET)&&(bitpos != (uint16_t)RESET))
 8000f08:	697b      	ldr	r3, [r7, #20]
 8000f0a:	2b00      	cmp	r3, #0
 8000f0c:	d005      	beq.n	8000f1a <USART_GetITStatus+0xa4>
 8000f0e:	68fb      	ldr	r3, [r7, #12]
 8000f10:	2b00      	cmp	r3, #0
 8000f12:	d002      	beq.n	8000f1a <USART_GetITStatus+0xa4>
  {
    bitstatus = SET;
 8000f14:	2301      	movs	r3, #1
 8000f16:	74fb      	strb	r3, [r7, #19]
 8000f18:	e001      	b.n	8000f1e <USART_GetITStatus+0xa8>
  }
  else
  {
    bitstatus = RESET;
 8000f1a:	2300      	movs	r3, #0
 8000f1c:	74fb      	strb	r3, [r7, #19]
  }
  
  return bitstatus;  
 8000f1e:	7cfb      	ldrb	r3, [r7, #19]
}
 8000f20:	4618      	mov	r0, r3
 8000f22:	371c      	adds	r7, #28
 8000f24:	46bd      	mov	sp, r7
 8000f26:	f85d 7b04 	ldr.w	r7, [sp], #4
 8000f2a:	4770      	bx	lr

08000f2c <USART_ClearITPendingBit>:
  *          (USART_SendData()).
  *  
  * @retval None
  */
void USART_ClearITPendingBit(USART_TypeDef* USARTx, uint16_t USART_IT)
{
 8000f2c:	b480      	push	{r7}
 8000f2e:	b085      	sub	sp, #20
 8000f30:	af00      	add	r7, sp, #0
 8000f32:	6078      	str	r0, [r7, #4]
 8000f34:	460b      	mov	r3, r1
 8000f36:	807b      	strh	r3, [r7, #2]
  uint16_t bitpos = 0x00, itmask = 0x00;
 8000f38:	2300      	movs	r3, #0
 8000f3a:	81fb      	strh	r3, [r7, #14]
 8000f3c:	2300      	movs	r3, #0
 8000f3e:	81bb      	strh	r3, [r7, #12]
  if (USART_IT == USART_IT_CTS)
  {
    assert_param(IS_USART_1236_PERIPH(USARTx));
  } 
    
  bitpos = USART_IT >> 0x08;
 8000f40:	887b      	ldrh	r3, [r7, #2]
 8000f42:	0a1b      	lsrs	r3, r3, #8
 8000f44:	81fb      	strh	r3, [r7, #14]
  itmask = ((uint16_t)0x01 << (uint16_t)bitpos);
 8000f46:	89fb      	ldrh	r3, [r7, #14]
 8000f48:	2201      	movs	r2, #1
 8000f4a:	fa02 f303 	lsl.w	r3, r2, r3
 8000f4e:	81bb      	strh	r3, [r7, #12]
  USARTx->SR = (uint16_t)~itmask;
 8000f50:	89bb      	ldrh	r3, [r7, #12]
 8000f52:	43db      	mvns	r3, r3
 8000f54:	b29a      	uxth	r2, r3
 8000f56:	687b      	ldr	r3, [r7, #4]
 8000f58:	801a      	strh	r2, [r3, #0]
}
 8000f5a:	bf00      	nop
 8000f5c:	3714      	adds	r7, #20
 8000f5e:	46bd      	mov	sp, r7
 8000f60:	f85d 7b04 	ldr.w	r7, [sp], #4
 8000f64:	4770      	bx	lr
	...

08000f68 <UB_VGA_Screen_Init>:

//--------------------------------------------------------------
// Init VGA-Module
//--------------------------------------------------------------
void UB_VGA_Screen_Init(void)
{
 8000f68:	b580      	push	{r7, lr}
 8000f6a:	b082      	sub	sp, #8
 8000f6c:	af00      	add	r7, sp, #0
  uint16_t xp,yp;

  VGA.hsync_cnt=0;
 8000f6e:	4b1b      	ldr	r3, [pc, #108]	; (8000fdc <UB_VGA_Screen_Init+0x74>)
 8000f70:	2200      	movs	r2, #0
 8000f72:	801a      	strh	r2, [r3, #0]
  VGA.start_adr=0;
 8000f74:	4b19      	ldr	r3, [pc, #100]	; (8000fdc <UB_VGA_Screen_Init+0x74>)
 8000f76:	2200      	movs	r2, #0
 8000f78:	605a      	str	r2, [r3, #4]
  VGA.dma2_cr_reg=0;
 8000f7a:	4b18      	ldr	r3, [pc, #96]	; (8000fdc <UB_VGA_Screen_Init+0x74>)
 8000f7c:	2200      	movs	r2, #0
 8000f7e:	609a      	str	r2, [r3, #8]

  // RAM init total black
  for(yp=0;yp<VGA_DISPLAY_Y;yp++) {
 8000f80:	2300      	movs	r3, #0
 8000f82:	80bb      	strh	r3, [r7, #4]
 8000f84:	e017      	b.n	8000fb6 <UB_VGA_Screen_Init+0x4e>
    for(xp=0;xp<(VGA_DISPLAY_X+1);xp++) {
 8000f86:	2300      	movs	r3, #0
 8000f88:	80fb      	strh	r3, [r7, #6]
 8000f8a:	e00d      	b.n	8000fa8 <UB_VGA_Screen_Init+0x40>
      VGA_RAM1[(yp*(VGA_DISPLAY_X+1))+xp]=0;
 8000f8c:	88ba      	ldrh	r2, [r7, #4]
 8000f8e:	4613      	mov	r3, r2
 8000f90:	009b      	lsls	r3, r3, #2
 8000f92:	4413      	add	r3, r2
 8000f94:	019b      	lsls	r3, r3, #6
 8000f96:	441a      	add	r2, r3
 8000f98:	88fb      	ldrh	r3, [r7, #6]
 8000f9a:	4413      	add	r3, r2
 8000f9c:	4a10      	ldr	r2, [pc, #64]	; (8000fe0 <UB_VGA_Screen_Init+0x78>)
 8000f9e:	2100      	movs	r1, #0
 8000fa0:	54d1      	strb	r1, [r2, r3]
    for(xp=0;xp<(VGA_DISPLAY_X+1);xp++) {
 8000fa2:	88fb      	ldrh	r3, [r7, #6]
 8000fa4:	3301      	adds	r3, #1
 8000fa6:	80fb      	strh	r3, [r7, #6]
 8000fa8:	88fb      	ldrh	r3, [r7, #6]
 8000faa:	f5b3 7fa0 	cmp.w	r3, #320	; 0x140
 8000fae:	d9ed      	bls.n	8000f8c <UB_VGA_Screen_Init+0x24>
  for(yp=0;yp<VGA_DISPLAY_Y;yp++) {
 8000fb0:	88bb      	ldrh	r3, [r7, #4]
 8000fb2:	3301      	adds	r3, #1
 8000fb4:	80bb      	strh	r3, [r7, #4]
 8000fb6:	88bb      	ldrh	r3, [r7, #4]
 8000fb8:	2bef      	cmp	r3, #239	; 0xef
 8000fba:	d9e4      	bls.n	8000f86 <UB_VGA_Screen_Init+0x1e>
    }
  }

  // init IO-Pins
  P_VGA_InitIO();
 8000fbc:	f000 f85e 	bl	800107c <P_VGA_InitIO>
  // init Timer
  P_VGA_InitTIM();
 8000fc0:	f000 f8b0 	bl	8001124 <P_VGA_InitTIM>
  // init DMA
  P_VGA_InitDMA();
 8000fc4:	f000 f940 	bl	8001248 <P_VGA_InitDMA>
  // init Interrupts
  P_VGA_InitINT();
 8000fc8:	f000 f912 	bl	80011f0 <P_VGA_InitINT>

  //-----------------------
  // Register swap and safe
  //-----------------------
  // content of CR-Register read and save
  VGA.dma2_cr_reg=DMA2_Stream5->CR;
 8000fcc:	4b05      	ldr	r3, [pc, #20]	; (8000fe4 <UB_VGA_Screen_Init+0x7c>)
 8000fce:	681b      	ldr	r3, [r3, #0]
 8000fd0:	4a02      	ldr	r2, [pc, #8]	; (8000fdc <UB_VGA_Screen_Init+0x74>)
 8000fd2:	6093      	str	r3, [r2, #8]
}
 8000fd4:	bf00      	nop
 8000fd6:	3708      	adds	r7, #8
 8000fd8:	46bd      	mov	sp, r7
 8000fda:	bd80      	pop	{r7, pc}
 8000fdc:	20000020 	.word	0x20000020
 8000fe0:	2000002c 	.word	0x2000002c
 8000fe4:	40026488 	.word	0x40026488

08000fe8 <UB_VGA_FillScreen>:

//--------------------------------------------------------------
// fill the DMA RAM buffer with one color
//--------------------------------------------------------------
void UB_VGA_FillScreen(uint8_t color)
{
 8000fe8:	b580      	push	{r7, lr}
 8000fea:	b084      	sub	sp, #16
 8000fec:	af00      	add	r7, sp, #0
 8000fee:	4603      	mov	r3, r0
 8000ff0:	71fb      	strb	r3, [r7, #7]
  uint16_t xp,yp;

  for(yp=0;yp<VGA_DISPLAY_Y;yp++) {
 8000ff2:	2300      	movs	r3, #0
 8000ff4:	81bb      	strh	r3, [r7, #12]
 8000ff6:	e012      	b.n	800101e <UB_VGA_FillScreen+0x36>
    for(xp=0;xp<VGA_DISPLAY_X;xp++) {
 8000ff8:	2300      	movs	r3, #0
 8000ffa:	81fb      	strh	r3, [r7, #14]
 8000ffc:	e008      	b.n	8001010 <UB_VGA_FillScreen+0x28>
      UB_VGA_SetPixel(xp,yp,color);
 8000ffe:	79fa      	ldrb	r2, [r7, #7]
 8001000:	89b9      	ldrh	r1, [r7, #12]
 8001002:	89fb      	ldrh	r3, [r7, #14]
 8001004:	4618      	mov	r0, r3
 8001006:	f000 f811 	bl	800102c <UB_VGA_SetPixel>
    for(xp=0;xp<VGA_DISPLAY_X;xp++) {
 800100a:	89fb      	ldrh	r3, [r7, #14]
 800100c:	3301      	adds	r3, #1
 800100e:	81fb      	strh	r3, [r7, #14]
 8001010:	89fb      	ldrh	r3, [r7, #14]
 8001012:	f5b3 7fa0 	cmp.w	r3, #320	; 0x140
 8001016:	d3f2      	bcc.n	8000ffe <UB_VGA_FillScreen+0x16>
  for(yp=0;yp<VGA_DISPLAY_Y;yp++) {
 8001018:	89bb      	ldrh	r3, [r7, #12]
 800101a:	3301      	adds	r3, #1
 800101c:	81bb      	strh	r3, [r7, #12]
 800101e:	89bb      	ldrh	r3, [r7, #12]
 8001020:	2bef      	cmp	r3, #239	; 0xef
 8001022:	d9e9      	bls.n	8000ff8 <UB_VGA_FillScreen+0x10>
    }
  }
}
 8001024:	bf00      	nop
 8001026:	3710      	adds	r7, #16
 8001028:	46bd      	mov	sp, r7
 800102a:	bd80      	pop	{r7, pc}

0800102c <UB_VGA_SetPixel>:
//--------------------------------------------------------------
// put one Pixel on the screen with one color
// Important : the last Pixel+1 from every line must be black (don't know why??)
//--------------------------------------------------------------
void UB_VGA_SetPixel(uint16_t xp, uint16_t yp, uint8_t color)
{
 800102c:	b480      	push	{r7}
 800102e:	b083      	sub	sp, #12
 8001030:	af00      	add	r7, sp, #0
 8001032:	4603      	mov	r3, r0
 8001034:	80fb      	strh	r3, [r7, #6]
 8001036:	460b      	mov	r3, r1
 8001038:	80bb      	strh	r3, [r7, #4]
 800103a:	4613      	mov	r3, r2
 800103c:	70fb      	strb	r3, [r7, #3]
  if(xp>=VGA_DISPLAY_X) xp=0;
 800103e:	88fb      	ldrh	r3, [r7, #6]
 8001040:	f5b3 7fa0 	cmp.w	r3, #320	; 0x140
 8001044:	d301      	bcc.n	800104a <UB_VGA_SetPixel+0x1e>
 8001046:	2300      	movs	r3, #0
 8001048:	80fb      	strh	r3, [r7, #6]
  if(yp>=VGA_DISPLAY_Y) yp=0;
 800104a:	88bb      	ldrh	r3, [r7, #4]
 800104c:	2bef      	cmp	r3, #239	; 0xef
 800104e:	d901      	bls.n	8001054 <UB_VGA_SetPixel+0x28>
 8001050:	2300      	movs	r3, #0
 8001052:	80bb      	strh	r3, [r7, #4]

  // Write pixel to ram
  VGA_RAM1[(yp*(VGA_DISPLAY_X+1))+xp]=color;
 8001054:	88ba      	ldrh	r2, [r7, #4]
 8001056:	4613      	mov	r3, r2
 8001058:	009b      	lsls	r3, r3, #2
 800105a:	4413      	add	r3, r2
 800105c:	019b      	lsls	r3, r3, #6
 800105e:	441a      	add	r2, r3
 8001060:	88fb      	ldrh	r3, [r7, #6]
 8001062:	4413      	add	r3, r2
 8001064:	4904      	ldr	r1, [pc, #16]	; (8001078 <UB_VGA_SetPixel+0x4c>)
 8001066:	78fa      	ldrb	r2, [r7, #3]
 8001068:	54ca      	strb	r2, [r1, r3]
}
 800106a:	bf00      	nop
 800106c:	370c      	adds	r7, #12
 800106e:	46bd      	mov	sp, r7
 8001070:	f85d 7b04 	ldr.w	r7, [sp], #4
 8001074:	4770      	bx	lr
 8001076:	bf00      	nop
 8001078:	2000002c 	.word	0x2000002c

0800107c <P_VGA_InitIO>:
//--------------------------------------------------------------
// interne Funktionen
// init aller IO-Pins
//--------------------------------------------------------------
void P_VGA_InitIO(void)
{
 800107c:	b580      	push	{r7, lr}
 800107e:	b082      	sub	sp, #8
 8001080:	af00      	add	r7, sp, #0
  // init RGB-Pins (PE8 - PE15)
  // as normal GPIOs
  //---------------------------------------------
 
  // Clock Enable
  RCC_AHB1PeriphClockCmd(RCC_AHB1Periph_GPIOE, ENABLE);
 8001082:	2101      	movs	r1, #1
 8001084:	2010      	movs	r0, #16
 8001086:	f7ff fc3b 	bl	8000900 <RCC_AHB1PeriphClockCmd>

  // Config as Digital output
  GPIO_InitStructure.GPIO_Pin = GPIO_Pin_8 | GPIO_Pin_9 | GPIO_Pin_10 | GPIO_Pin_11 |
 800108a:	f44f 437f 	mov.w	r3, #65280	; 0xff00
 800108e:	603b      	str	r3, [r7, #0]
        GPIO_Pin_12 | GPIO_Pin_13 | GPIO_Pin_14 | GPIO_Pin_15;
  GPIO_InitStructure.GPIO_Mode = GPIO_Mode_OUT;
 8001090:	2301      	movs	r3, #1
 8001092:	713b      	strb	r3, [r7, #4]
  GPIO_InitStructure.GPIO_OType = GPIO_OType_PP;
 8001094:	2300      	movs	r3, #0
 8001096:	71bb      	strb	r3, [r7, #6]
  GPIO_InitStructure.GPIO_PuPd = GPIO_PuPd_UP;
 8001098:	2301      	movs	r3, #1
 800109a:	71fb      	strb	r3, [r7, #7]
  GPIO_InitStructure.GPIO_Speed = GPIO_Speed_100MHz;
 800109c:	2303      	movs	r3, #3
 800109e:	717b      	strb	r3, [r7, #5]
  GPIO_Init(GPIOE, &GPIO_InitStructure);
 80010a0:	463b      	mov	r3, r7
 80010a2:	4619      	mov	r1, r3
 80010a4:	481d      	ldr	r0, [pc, #116]	; (800111c <P_VGA_InitIO+0xa0>)
 80010a6:	f7ff fb53 	bl	8000750 <GPIO_Init>

  GPIOE->BSRRH = VGA_GPIO_HINIBBLE;
 80010aa:	4b1c      	ldr	r3, [pc, #112]	; (800111c <P_VGA_InitIO+0xa0>)
 80010ac:	f44f 427f 	mov.w	r2, #65280	; 0xff00
 80010b0:	835a      	strh	r2, [r3, #26]
  // init of the H-Sync Pin (PB11)
  // using Timer2 and CH4
  //---------------------------------------------

  // Clock Enable
  RCC_AHB1PeriphClockCmd(RCC_AHB1Periph_GPIOB, ENABLE);
 80010b2:	2101      	movs	r1, #1
 80010b4:	2002      	movs	r0, #2
 80010b6:	f7ff fc23 	bl	8000900 <RCC_AHB1PeriphClockCmd>

  // Config Pins as Digital-out
  GPIO_InitStructure.GPIO_Pin = GPIO_Pin_11;
 80010ba:	f44f 6300 	mov.w	r3, #2048	; 0x800
 80010be:	603b      	str	r3, [r7, #0]
  GPIO_InitStructure.GPIO_Mode = GPIO_Mode_AF;
 80010c0:	2302      	movs	r3, #2
 80010c2:	713b      	strb	r3, [r7, #4]
  GPIO_InitStructure.GPIO_Speed = GPIO_Speed_100MHz;
 80010c4:	2303      	movs	r3, #3
 80010c6:	717b      	strb	r3, [r7, #5]
  GPIO_InitStructure.GPIO_OType = GPIO_OType_PP;
 80010c8:	2300      	movs	r3, #0
 80010ca:	71bb      	strb	r3, [r7, #6]
  GPIO_InitStructure.GPIO_PuPd = GPIO_PuPd_UP ;
 80010cc:	2301      	movs	r3, #1
 80010ce:	71fb      	strb	r3, [r7, #7]
  GPIO_Init(GPIOB, &GPIO_InitStructure);
 80010d0:	463b      	mov	r3, r7
 80010d2:	4619      	mov	r1, r3
 80010d4:	4812      	ldr	r0, [pc, #72]	; (8001120 <P_VGA_InitIO+0xa4>)
 80010d6:	f7ff fb3b 	bl	8000750 <GPIO_Init>

  // alternative function connect with IO
  GPIO_PinAFConfig(GPIOB, GPIO_PinSource11, GPIO_AF_TIM2);
 80010da:	2201      	movs	r2, #1
 80010dc:	210b      	movs	r1, #11
 80010de:	4810      	ldr	r0, [pc, #64]	; (8001120 <P_VGA_InitIO+0xa4>)
 80010e0:	f7ff fbc4 	bl	800086c <GPIO_PinAFConfig>
  // init of V-Sync Pin (PB12)
  // using GPIO
  //---------------------------------------------

  // Clock Enable
  RCC_AHB1PeriphClockCmd(RCC_AHB1Periph_GPIOB, ENABLE);
 80010e4:	2101      	movs	r1, #1
 80010e6:	2002      	movs	r0, #2
 80010e8:	f7ff fc0a 	bl	8000900 <RCC_AHB1PeriphClockCmd>

  // Config of the Pins as Digital out
  GPIO_InitStructure.GPIO_Pin = GPIO_Pin_12;
 80010ec:	f44f 5380 	mov.w	r3, #4096	; 0x1000
 80010f0:	603b      	str	r3, [r7, #0]
  GPIO_InitStructure.GPIO_Mode = GPIO_Mode_OUT;
 80010f2:	2301      	movs	r3, #1
 80010f4:	713b      	strb	r3, [r7, #4]
  GPIO_InitStructure.GPIO_OType = GPIO_OType_PP;
 80010f6:	2300      	movs	r3, #0
 80010f8:	71bb      	strb	r3, [r7, #6]
  GPIO_InitStructure.GPIO_PuPd = GPIO_PuPd_UP;
 80010fa:	2301      	movs	r3, #1
 80010fc:	71fb      	strb	r3, [r7, #7]
  GPIO_InitStructure.GPIO_Speed = GPIO_Speed_100MHz;
 80010fe:	2303      	movs	r3, #3
 8001100:	717b      	strb	r3, [r7, #5]
  GPIO_Init(GPIOB, &GPIO_InitStructure);
 8001102:	463b      	mov	r3, r7
 8001104:	4619      	mov	r1, r3
 8001106:	4806      	ldr	r0, [pc, #24]	; (8001120 <P_VGA_InitIO+0xa4>)
 8001108:	f7ff fb22 	bl	8000750 <GPIO_Init>

  GPIOB->BSRRL = GPIO_Pin_12;
 800110c:	4b04      	ldr	r3, [pc, #16]	; (8001120 <P_VGA_InitIO+0xa4>)
 800110e:	f44f 5280 	mov.w	r2, #4096	; 0x1000
 8001112:	831a      	strh	r2, [r3, #24]
}
 8001114:	bf00      	nop
 8001116:	3708      	adds	r7, #8
 8001118:	46bd      	mov	sp, r7
 800111a:	bd80      	pop	{r7, pc}
 800111c:	40021000 	.word	0x40021000
 8001120:	40020400 	.word	0x40020400

08001124 <P_VGA_InitTIM>:
//--------------------------------------------------------------
// internal Function
// init Timer
//--------------------------------------------------------------
void P_VGA_InitTIM(void)
{
 8001124:	b580      	push	{r7, lr}
 8001126:	b088      	sub	sp, #32
 8001128:	af00      	add	r7, sp, #0
  // init of Timer1 for
  // Pixeldata via DMA
  //---------------------------------------------

  // Clock enable
  RCC_APB2PeriphClockCmd(RCC_APB2Periph_TIM1, ENABLE);
 800112a:	2101      	movs	r1, #1
 800112c:	2001      	movs	r0, #1
 800112e:	f7ff fc27 	bl	8000980 <RCC_APB2PeriphClockCmd>

  // Timer1 init
  TIM_TimeBaseStructure.TIM_Period =  VGA_TIM1_PERIODE;
 8001132:	230b      	movs	r3, #11
 8001134:	61bb      	str	r3, [r7, #24]
  TIM_TimeBaseStructure.TIM_Prescaler = VGA_TIM1_PRESCALE;
 8001136:	2300      	movs	r3, #0
 8001138:	82bb      	strh	r3, [r7, #20]
  TIM_TimeBaseStructure.TIM_ClockDivision = TIM_CKD_DIV1;
 800113a:	2300      	movs	r3, #0
 800113c:	83bb      	strh	r3, [r7, #28]
  TIM_TimeBaseStructure.TIM_CounterMode = TIM_CounterMode_Up;
 800113e:	2300      	movs	r3, #0
 8001140:	82fb      	strh	r3, [r7, #22]
  TIM_TimeBaseInit(TIM1, &TIM_TimeBaseStructure);
 8001142:	f107 0314 	add.w	r3, r7, #20
 8001146:	4619      	mov	r1, r3
 8001148:	4828      	ldr	r0, [pc, #160]	; (80011ec <P_VGA_InitTIM+0xc8>)
 800114a:	f7ff fc39 	bl	80009c0 <TIM_TimeBaseInit>
  // CH4 for HSYNC-Signal
  // CH3 for DMA Trigger start
  //---------------------------------------------

  // Clock enable
  RCC_APB1PeriphClockCmd(RCC_APB1Periph_TIM2, ENABLE);
 800114e:	2101      	movs	r1, #1
 8001150:	2001      	movs	r0, #1
 8001152:	f7ff fbf5 	bl	8000940 <RCC_APB1PeriphClockCmd>

  // Timer2 init
  TIM_TimeBaseStructure.TIM_Period = VGA_TIM2_HSYNC_PERIODE;
 8001156:	f640 236b 	movw	r3, #2667	; 0xa6b
 800115a:	61bb      	str	r3, [r7, #24]
  TIM_TimeBaseStructure.TIM_Prescaler = VGA_TIM2_HSYNC_PRESCALE;
 800115c:	2300      	movs	r3, #0
 800115e:	82bb      	strh	r3, [r7, #20]
  TIM_TimeBaseStructure.TIM_ClockDivision = TIM_CKD_DIV1;
 8001160:	2300      	movs	r3, #0
 8001162:	83bb      	strh	r3, [r7, #28]
  TIM_TimeBaseStructure.TIM_CounterMode = TIM_CounterMode_Up;
 8001164:	2300      	movs	r3, #0
 8001166:	82fb      	strh	r3, [r7, #22]
  TIM_TimeBaseInit(TIM2, &TIM_TimeBaseStructure);
 8001168:	f107 0314 	add.w	r3, r7, #20
 800116c:	4619      	mov	r1, r3
 800116e:	f04f 4080 	mov.w	r0, #1073741824	; 0x40000000
 8001172:	f7ff fc25 	bl	80009c0 <TIM_TimeBaseInit>

  // Timer2 Channel 3 ( for DMA Trigger start)
  TIM_OCInitStructure.TIM_OCMode = TIM_OCMode_PWM1;
 8001176:	2360      	movs	r3, #96	; 0x60
 8001178:	803b      	strh	r3, [r7, #0]
  TIM_OCInitStructure.TIM_OutputState = TIM_OutputState_Enable;
 800117a:	2301      	movs	r3, #1
 800117c:	807b      	strh	r3, [r7, #2]
  TIM_OCInitStructure.TIM_Pulse = VGA_TIM2_HTRIGGER_START-VGA_TIM2_DMA_DELAY;
 800117e:	f44f 73d2 	mov.w	r3, #420	; 0x1a4
 8001182:	60bb      	str	r3, [r7, #8]
  TIM_OCInitStructure.TIM_OCPolarity = TIM_OCPolarity_Low;
 8001184:	2302      	movs	r3, #2
 8001186:	81bb      	strh	r3, [r7, #12]
  TIM_OC3Init(TIM2, &TIM_OCInitStructure);
 8001188:	463b      	mov	r3, r7
 800118a:	4619      	mov	r1, r3
 800118c:	f04f 4080 	mov.w	r0, #1073741824	; 0x40000000
 8001190:	f7ff fcc2 	bl	8000b18 <TIM_OC3Init>
  TIM_OC3PreloadConfig(TIM2, TIM_OCPreload_Enable);
 8001194:	2108      	movs	r1, #8
 8001196:	f04f 4080 	mov.w	r0, #1073741824	; 0x40000000
 800119a:	f7ff fdab 	bl	8000cf4 <TIM_OC3PreloadConfig>

  // Timer2 Channel 4 (for HSYNC)
  TIM_OCInitStructure.TIM_OCMode = TIM_OCMode_PWM1;
 800119e:	2360      	movs	r3, #96	; 0x60
 80011a0:	803b      	strh	r3, [r7, #0]
  TIM_OCInitStructure.TIM_OutputState = TIM_OutputState_Enable;
 80011a2:	2301      	movs	r3, #1
 80011a4:	807b      	strh	r3, [r7, #2]
  TIM_OCInitStructure.TIM_Pulse = VGA_TIM2_HSYNC_IMP;
 80011a6:	f44f 73a0 	mov.w	r3, #320	; 0x140
 80011aa:	60bb      	str	r3, [r7, #8]
  TIM_OCInitStructure.TIM_OCPolarity = TIM_OCPolarity_Low;
 80011ac:	2302      	movs	r3, #2
 80011ae:	81bb      	strh	r3, [r7, #12]
  TIM_OC4Init(TIM2, &TIM_OCInitStructure);
 80011b0:	463b      	mov	r3, r7
 80011b2:	4619      	mov	r1, r3
 80011b4:	f04f 4080 	mov.w	r0, #1073741824	; 0x40000000
 80011b8:	f7ff fd34 	bl	8000c24 <TIM_OC4Init>
  TIM_OC4PreloadConfig(TIM2, TIM_OCPreload_Enable);
 80011bc:	2108      	movs	r1, #8
 80011be:	f04f 4080 	mov.w	r0, #1073741824	; 0x40000000
 80011c2:	f7ff fdb3 	bl	8000d2c <TIM_OC4PreloadConfig>
  //---------------------------------------------
  // enable all Timers
  //---------------------------------------------

  // Timer1 enable
  TIM_ARRPreloadConfig(TIM1, ENABLE);
 80011c6:	2101      	movs	r1, #1
 80011c8:	4808      	ldr	r0, [pc, #32]	; (80011ec <P_VGA_InitTIM+0xc8>)
 80011ca:	f7ff fc65 	bl	8000a98 <TIM_ARRPreloadConfig>

  // Timer2 enable
  TIM_ARRPreloadConfig(TIM2, ENABLE);
 80011ce:	2101      	movs	r1, #1
 80011d0:	f04f 4080 	mov.w	r0, #1073741824	; 0x40000000
 80011d4:	f7ff fc60 	bl	8000a98 <TIM_ARRPreloadConfig>
  TIM_Cmd(TIM2, ENABLE);
 80011d8:	2101      	movs	r1, #1
 80011da:	f04f 4080 	mov.w	r0, #1073741824	; 0x40000000
 80011de:	f7ff fc7b 	bl	8000ad8 <TIM_Cmd>

}
 80011e2:	bf00      	nop
 80011e4:	3720      	adds	r7, #32
 80011e6:	46bd      	mov	sp, r7
 80011e8:	bd80      	pop	{r7, pc}
 80011ea:	bf00      	nop
 80011ec:	40010000 	.word	0x40010000

080011f0 <P_VGA_InitINT>:
//--------------------------------------------------------------
// internal Function
// init Interrupts
//--------------------------------------------------------------
void P_VGA_InitINT(void)
{
 80011f0:	b580      	push	{r7, lr}
 80011f2:	b082      	sub	sp, #8
 80011f4:	af00      	add	r7, sp, #0
  // init from DMA Interrupt
  // for TransferComplete Interrupt
  // DMA2, Stream5, Channel6
  //---------------------------------------------

  DMA_ITConfig(DMA2_Stream5, DMA_IT_TC, ENABLE);
 80011f6:	2201      	movs	r2, #1
 80011f8:	2110      	movs	r1, #16
 80011fa:	4812      	ldr	r0, [pc, #72]	; (8001244 <P_VGA_InitINT+0x54>)
 80011fc:	f7ff f9e8 	bl	80005d0 <DMA_ITConfig>

  // NVIC config
  NVIC_InitStructure.NVIC_IRQChannel = DMA2_Stream5_IRQn;
 8001200:	2344      	movs	r3, #68	; 0x44
 8001202:	713b      	strb	r3, [r7, #4]
  NVIC_InitStructure.NVIC_IRQChannelPreemptionPriority = 0;
 8001204:	2300      	movs	r3, #0
 8001206:	717b      	strb	r3, [r7, #5]
  NVIC_InitStructure.NVIC_IRQChannelSubPriority = 0;
 8001208:	2300      	movs	r3, #0
 800120a:	71bb      	strb	r3, [r7, #6]
  NVIC_InitStructure.NVIC_IRQChannelCmd = ENABLE;
 800120c:	2301      	movs	r3, #1
 800120e:	71fb      	strb	r3, [r7, #7]
  NVIC_Init(&NVIC_InitStructure);
 8001210:	1d3b      	adds	r3, r7, #4
 8001212:	4618      	mov	r0, r3
 8001214:	f7ff f832 	bl	800027c <NVIC_Init>
  // init of Timer2 Interrupt
  // for HSync-Counter using Update
  // for DMA Trigger START using CH3
  //---------------------------------------------

  TIM_ITConfig(TIM2,TIM_IT_CC3,ENABLE);
 8001218:	2201      	movs	r2, #1
 800121a:	2108      	movs	r1, #8
 800121c:	f04f 4080 	mov.w	r0, #1073741824	; 0x40000000
 8001220:	f7ff fda2 	bl	8000d68 <TIM_ITConfig>

  // NVIC config
  NVIC_InitStructure.NVIC_IRQChannel = TIM2_IRQn;
 8001224:	231c      	movs	r3, #28
 8001226:	713b      	strb	r3, [r7, #4]
  NVIC_InitStructure.NVIC_IRQChannelPreemptionPriority = 0;
 8001228:	2300      	movs	r3, #0
 800122a:	717b      	strb	r3, [r7, #5]
  NVIC_InitStructure.NVIC_IRQChannelSubPriority = 0;
 800122c:	2300      	movs	r3, #0
 800122e:	71bb      	strb	r3, [r7, #6]
  NVIC_InitStructure.NVIC_IRQChannelCmd = ENABLE;
 8001230:	2301      	movs	r3, #1
 8001232:	71fb      	strb	r3, [r7, #7]
  NVIC_Init(&NVIC_InitStructure);
 8001234:	1d3b      	adds	r3, r7, #4
 8001236:	4618      	mov	r0, r3
 8001238:	f7ff f820 	bl	800027c <NVIC_Init>
}
 800123c:	bf00      	nop
 800123e:	3708      	adds	r7, #8
 8001240:	46bd      	mov	sp, r7
 8001242:	bd80      	pop	{r7, pc}
 8001244:	40026488 	.word	0x40026488

08001248 <P_VGA_InitDMA>:
//--------------------------------------------------------------
// internal Function
// init DMA
//--------------------------------------------------------------
void P_VGA_InitDMA(void)
{
 8001248:	b580      	push	{r7, lr}
 800124a:	b090      	sub	sp, #64	; 0x40
 800124c:	af00      	add	r7, sp, #0
  // (look at page 217 of the Ref Manual)
  // DMA=2, Channel=6, Stream=5
  //---------------------------------------------

  // Clock Enable (DMA)
  RCC_AHB1PeriphClockCmd(RCC_AHB1Periph_DMA2, ENABLE);
 800124e:	2101      	movs	r1, #1
 8001250:	f44f 0080 	mov.w	r0, #4194304	; 0x400000
 8001254:	f7ff fb54 	bl	8000900 <RCC_AHB1PeriphClockCmd>

  // DMA init (DMA2, Channel6, Stream5)
  DMA_Cmd(DMA2_Stream5, DISABLE);
 8001258:	2100      	movs	r1, #0
 800125a:	481b      	ldr	r0, [pc, #108]	; (80012c8 <P_VGA_InitDMA+0x80>)
 800125c:	f7ff f99c 	bl	8000598 <DMA_Cmd>
  DMA_DeInit(DMA2_Stream5);
 8001260:	4819      	ldr	r0, [pc, #100]	; (80012c8 <P_VGA_InitDMA+0x80>)
 8001262:	f7ff f86d 	bl	8000340 <DMA_DeInit>
  DMA_InitStructure.DMA_Channel = DMA_Channel_6;
 8001266:	f04f 6340 	mov.w	r3, #201326592	; 0xc000000
 800126a:	607b      	str	r3, [r7, #4]
  DMA_InitStructure.DMA_PeripheralBaseAddr = (uint32_t)VGA_GPIOE_ODR_ADDRESS;
 800126c:	4b17      	ldr	r3, [pc, #92]	; (80012cc <P_VGA_InitDMA+0x84>)
 800126e:	60bb      	str	r3, [r7, #8]
  DMA_InitStructure.DMA_Memory0BaseAddr = (uint32_t)&VGA_RAM1;
 8001270:	4b17      	ldr	r3, [pc, #92]	; (80012d0 <P_VGA_InitDMA+0x88>)
 8001272:	60fb      	str	r3, [r7, #12]
  DMA_InitStructure.DMA_DIR = DMA_DIR_MemoryToPeripheral;
 8001274:	2340      	movs	r3, #64	; 0x40
 8001276:	613b      	str	r3, [r7, #16]
  DMA_InitStructure.DMA_BufferSize = VGA_DISPLAY_X+1;
 8001278:	f240 1341 	movw	r3, #321	; 0x141
 800127c:	617b      	str	r3, [r7, #20]
  DMA_InitStructure.DMA_PeripheralInc = DMA_PeripheralInc_Disable;
 800127e:	2300      	movs	r3, #0
 8001280:	61bb      	str	r3, [r7, #24]
  DMA_InitStructure.DMA_MemoryInc = DMA_MemoryInc_Enable;
 8001282:	f44f 6380 	mov.w	r3, #1024	; 0x400
 8001286:	61fb      	str	r3, [r7, #28]
  DMA_InitStructure.DMA_PeripheralDataSize = DMA_PeripheralDataSize_Byte;
 8001288:	2300      	movs	r3, #0
 800128a:	623b      	str	r3, [r7, #32]
  DMA_InitStructure.DMA_MemoryDataSize = DMA_MemoryDataSize_Byte;
 800128c:	2300      	movs	r3, #0
 800128e:	627b      	str	r3, [r7, #36]	; 0x24
  DMA_InitStructure.DMA_Mode = DMA_Mode_Normal;
 8001290:	2300      	movs	r3, #0
 8001292:	62bb      	str	r3, [r7, #40]	; 0x28
  DMA_InitStructure.DMA_Priority = DMA_Priority_VeryHigh;
 8001294:	f44f 3340 	mov.w	r3, #196608	; 0x30000
 8001298:	62fb      	str	r3, [r7, #44]	; 0x2c
  DMA_InitStructure.DMA_FIFOMode = DMA_FIFOMode_Disable;
 800129a:	2300      	movs	r3, #0
 800129c:	633b      	str	r3, [r7, #48]	; 0x30
  DMA_InitStructure.DMA_FIFOThreshold = DMA_FIFOThreshold_HalfFull;
 800129e:	2301      	movs	r3, #1
 80012a0:	637b      	str	r3, [r7, #52]	; 0x34
  DMA_InitStructure.DMA_MemoryBurst = DMA_MemoryBurst_Single;
 80012a2:	2300      	movs	r3, #0
 80012a4:	63bb      	str	r3, [r7, #56]	; 0x38
  DMA_InitStructure.DMA_PeripheralBurst = DMA_PeripheralBurst_Single;
 80012a6:	2300      	movs	r3, #0
 80012a8:	63fb      	str	r3, [r7, #60]	; 0x3c
  DMA_Init(DMA2_Stream5, &DMA_InitStructure);
 80012aa:	1d3b      	adds	r3, r7, #4
 80012ac:	4619      	mov	r1, r3
 80012ae:	4806      	ldr	r0, [pc, #24]	; (80012c8 <P_VGA_InitDMA+0x80>)
 80012b0:	f7ff f91a 	bl	80004e8 <DMA_Init>

  // DMA-Timer1 enable
  TIM_DMACmd(TIM1,TIM_DMA_Update,ENABLE);
 80012b4:	2201      	movs	r2, #1
 80012b6:	f44f 7180 	mov.w	r1, #256	; 0x100
 80012ba:	4806      	ldr	r0, [pc, #24]	; (80012d4 <P_VGA_InitDMA+0x8c>)
 80012bc:	f7ff fd89 	bl	8000dd2 <TIM_DMACmd>
}
 80012c0:	bf00      	nop
 80012c2:	3740      	adds	r7, #64	; 0x40
 80012c4:	46bd      	mov	sp, r7
 80012c6:	bd80      	pop	{r7, pc}
 80012c8:	40026488 	.word	0x40026488
 80012cc:	40021015 	.word	0x40021015
 80012d0:	2000002c 	.word	0x2000002c
 80012d4:	40010000 	.word	0x40010000

080012d8 <TIM2_IRQHandler>:
//
//   CC3-Interrupt    -> starts from DMA
// Watch it.. higher troughput when interrupt flag is left alone
//--------------------------------------------------------------
void TIM2_IRQHandler(void)
{
 80012d8:	b580      	push	{r7, lr}
 80012da:	af00      	add	r7, sp, #0

  // Interrupt of Timer2 CH3 occurred (for Trigger start)
  TIM_ClearITPendingBit(TIM2, TIM_IT_CC3);
 80012dc:	2108      	movs	r1, #8
 80012de:	f04f 4080 	mov.w	r0, #1073741824	; 0x40000000
 80012e2:	f7ff fd65 	bl	8000db0 <TIM_ClearITPendingBit>

  VGA.hsync_cnt++;
 80012e6:	4b26      	ldr	r3, [pc, #152]	; (8001380 <TIM2_IRQHandler+0xa8>)
 80012e8:	881b      	ldrh	r3, [r3, #0]
 80012ea:	3301      	adds	r3, #1
 80012ec:	b29a      	uxth	r2, r3
 80012ee:	4b24      	ldr	r3, [pc, #144]	; (8001380 <TIM2_IRQHandler+0xa8>)
 80012f0:	801a      	strh	r2, [r3, #0]
  if(VGA.hsync_cnt>=VGA_VSYNC_PERIODE) {
 80012f2:	4b23      	ldr	r3, [pc, #140]	; (8001380 <TIM2_IRQHandler+0xa8>)
 80012f4:	881b      	ldrh	r3, [r3, #0]
 80012f6:	f5b3 7f03 	cmp.w	r3, #524	; 0x20c
 80012fa:	d905      	bls.n	8001308 <TIM2_IRQHandler+0x30>
    // -----------
    VGA.hsync_cnt=0;
 80012fc:	4b20      	ldr	r3, [pc, #128]	; (8001380 <TIM2_IRQHandler+0xa8>)
 80012fe:	2200      	movs	r2, #0
 8001300:	801a      	strh	r2, [r3, #0]
    // Adresspointer first dot
    VGA.start_adr=(uint32_t)(&VGA_RAM1[0]);
 8001302:	4a20      	ldr	r2, [pc, #128]	; (8001384 <TIM2_IRQHandler+0xac>)
 8001304:	4b1e      	ldr	r3, [pc, #120]	; (8001380 <TIM2_IRQHandler+0xa8>)
 8001306:	605a      	str	r2, [r3, #4]
  }

  // HSync-Pixel
  if(VGA.hsync_cnt<VGA_VSYNC_IMP) {
 8001308:	4b1d      	ldr	r3, [pc, #116]	; (8001380 <TIM2_IRQHandler+0xa8>)
 800130a:	881b      	ldrh	r3, [r3, #0]
 800130c:	2b01      	cmp	r3, #1
 800130e:	d804      	bhi.n	800131a <TIM2_IRQHandler+0x42>
    // HSync low
    GPIOB->BSRRH = GPIO_Pin_12;
 8001310:	4b1d      	ldr	r3, [pc, #116]	; (8001388 <TIM2_IRQHandler+0xb0>)
 8001312:	f44f 5280 	mov.w	r2, #4096	; 0x1000
 8001316:	835a      	strh	r2, [r3, #26]
 8001318:	e003      	b.n	8001322 <TIM2_IRQHandler+0x4a>
  }
  else {
    // HSync High
    GPIOB->BSRRL = GPIO_Pin_12;
 800131a:	4b1b      	ldr	r3, [pc, #108]	; (8001388 <TIM2_IRQHandler+0xb0>)
 800131c:	f44f 5280 	mov.w	r2, #4096	; 0x1000
 8001320:	831a      	strh	r2, [r3, #24]
  }

  // Test for DMA start
  if((VGA.hsync_cnt>=VGA_VSYNC_BILD_START) && (VGA.hsync_cnt<=VGA_VSYNC_BILD_STOP)) {
 8001322:	4b17      	ldr	r3, [pc, #92]	; (8001380 <TIM2_IRQHandler+0xa8>)
 8001324:	881b      	ldrh	r3, [r3, #0]
 8001326:	2b23      	cmp	r3, #35	; 0x23
 8001328:	d927      	bls.n	800137a <TIM2_IRQHandler+0xa2>
 800132a:	4b15      	ldr	r3, [pc, #84]	; (8001380 <TIM2_IRQHandler+0xa8>)
 800132c:	881b      	ldrh	r3, [r3, #0]
 800132e:	f240 2202 	movw	r2, #514	; 0x202
 8001332:	4293      	cmp	r3, r2
 8001334:	d821      	bhi.n	800137a <TIM2_IRQHandler+0xa2>
    // after FP start => DMA Transfer

    // DMA2 init
	DMA2_Stream5->CR=VGA.dma2_cr_reg;
 8001336:	4a15      	ldr	r2, [pc, #84]	; (800138c <TIM2_IRQHandler+0xb4>)
 8001338:	4b11      	ldr	r3, [pc, #68]	; (8001380 <TIM2_IRQHandler+0xa8>)
 800133a:	689b      	ldr	r3, [r3, #8]
 800133c:	6013      	str	r3, [r2, #0]
    // set adress
    DMA2_Stream5->M0AR=VGA.start_adr;
 800133e:	4a13      	ldr	r2, [pc, #76]	; (800138c <TIM2_IRQHandler+0xb4>)
 8001340:	4b0f      	ldr	r3, [pc, #60]	; (8001380 <TIM2_IRQHandler+0xa8>)
 8001342:	685b      	ldr	r3, [r3, #4]
 8001344:	60d3      	str	r3, [r2, #12]
    // Timer1 start
    TIM1->CR1|=TIM_CR1_CEN;
 8001346:	4a12      	ldr	r2, [pc, #72]	; (8001390 <TIM2_IRQHandler+0xb8>)
 8001348:	4b11      	ldr	r3, [pc, #68]	; (8001390 <TIM2_IRQHandler+0xb8>)
 800134a:	881b      	ldrh	r3, [r3, #0]
 800134c:	b29b      	uxth	r3, r3
 800134e:	f043 0301 	orr.w	r3, r3, #1
 8001352:	b29b      	uxth	r3, r3
 8001354:	8013      	strh	r3, [r2, #0]
    // DMA2 enable
    DMA2_Stream5->CR|=DMA_SxCR_EN;
 8001356:	4a0d      	ldr	r2, [pc, #52]	; (800138c <TIM2_IRQHandler+0xb4>)
 8001358:	4b0c      	ldr	r3, [pc, #48]	; (800138c <TIM2_IRQHandler+0xb4>)
 800135a:	681b      	ldr	r3, [r3, #0]
 800135c:	f043 0301 	orr.w	r3, r3, #1
 8001360:	6013      	str	r3, [r2, #0]

    // Test Adrespointer for high
    if((VGA.hsync_cnt & 0x01)!=0) {
 8001362:	4b07      	ldr	r3, [pc, #28]	; (8001380 <TIM2_IRQHandler+0xa8>)
 8001364:	881b      	ldrh	r3, [r3, #0]
 8001366:	f003 0301 	and.w	r3, r3, #1
 800136a:	2b00      	cmp	r3, #0
 800136c:	d005      	beq.n	800137a <TIM2_IRQHandler+0xa2>
      // inc after Hsync
      VGA.start_adr+=(VGA_DISPLAY_X+1);
 800136e:	4b04      	ldr	r3, [pc, #16]	; (8001380 <TIM2_IRQHandler+0xa8>)
 8001370:	685b      	ldr	r3, [r3, #4]
 8001372:	f203 1341 	addw	r3, r3, #321	; 0x141
 8001376:	4a02      	ldr	r2, [pc, #8]	; (8001380 <TIM2_IRQHandler+0xa8>)
 8001378:	6053      	str	r3, [r2, #4]
    }
  }
}
 800137a:	bf00      	nop
 800137c:	bd80      	pop	{r7, pc}
 800137e:	bf00      	nop
 8001380:	20000020 	.word	0x20000020
 8001384:	2000002c 	.word	0x2000002c
 8001388:	40020400 	.word	0x40020400
 800138c:	40026488 	.word	0x40026488
 8001390:	40010000 	.word	0x40010000

08001394 <DMA2_Stream5_IRQHandler>:
//   after TransferCompleteInterrupt -> stop DMA
//
// still a bit buggy
//--------------------------------------------------------------
void DMA2_Stream5_IRQHandler(void)
{
 8001394:	b580      	push	{r7, lr}
 8001396:	af00      	add	r7, sp, #0
  if(DMA_GetITStatus(DMA2_Stream5, DMA_IT_TCIF5))
 8001398:	490d      	ldr	r1, [pc, #52]	; (80013d0 <DMA2_Stream5_IRQHandler+0x3c>)
 800139a:	480e      	ldr	r0, [pc, #56]	; (80013d4 <DMA2_Stream5_IRQHandler+0x40>)
 800139c:	f7ff f952 	bl	8000644 <DMA_GetITStatus>
 80013a0:	4603      	mov	r3, r0
 80013a2:	2b00      	cmp	r3, #0
 80013a4:	d012      	beq.n	80013cc <DMA2_Stream5_IRQHandler+0x38>
  {
    // TransferInterruptComplete Interrupt from DMA2
    DMA_ClearITPendingBit(DMA2_Stream5, DMA_IT_TCIF5);
 80013a6:	490a      	ldr	r1, [pc, #40]	; (80013d0 <DMA2_Stream5_IRQHandler+0x3c>)
 80013a8:	480a      	ldr	r0, [pc, #40]	; (80013d4 <DMA2_Stream5_IRQHandler+0x40>)
 80013aa:	f7ff f9a3 	bl	80006f4 <DMA_ClearITPendingBit>
    // stop after all pixels => DMA Transfer stop

    // Timer1 stop
    TIM1->CR1&=~TIM_CR1_CEN;
 80013ae:	4a0a      	ldr	r2, [pc, #40]	; (80013d8 <DMA2_Stream5_IRQHandler+0x44>)
 80013b0:	4b09      	ldr	r3, [pc, #36]	; (80013d8 <DMA2_Stream5_IRQHandler+0x44>)
 80013b2:	881b      	ldrh	r3, [r3, #0]
 80013b4:	b29b      	uxth	r3, r3
 80013b6:	f023 0301 	bic.w	r3, r3, #1
 80013ba:	b29b      	uxth	r3, r3
 80013bc:	8013      	strh	r3, [r2, #0]
    // DMA2 disable
    DMA2_Stream5->CR=0;
 80013be:	4b05      	ldr	r3, [pc, #20]	; (80013d4 <DMA2_Stream5_IRQHandler+0x40>)
 80013c0:	2200      	movs	r2, #0
 80013c2:	601a      	str	r2, [r3, #0]
    // switch on black
    GPIOE->BSRRH = VGA_GPIO_HINIBBLE;
 80013c4:	4b05      	ldr	r3, [pc, #20]	; (80013dc <DMA2_Stream5_IRQHandler+0x48>)
 80013c6:	f44f 427f 	mov.w	r2, #65280	; 0xff00
 80013ca:	835a      	strh	r2, [r3, #26]
  }
}
 80013cc:	bf00      	nop
 80013ce:	bd80      	pop	{r7, pc}
 80013d0:	20008800 	.word	0x20008800
 80013d4:	40026488 	.word	0x40026488
 80013d8:	40010000 	.word	0x40010000
 80013dc:	40021000 	.word	0x40021000

080013e0 <USART2_IRQHandler>:
	NVIC_InitStructure.NVIC_IRQChannelCmd = ENABLE;
	NVIC_Init(&NVIC_InitStructure);
}

void USART2_IRQHandler(void)
{
 80013e0:	b580      	push	{r7, lr}
 80013e2:	b082      	sub	sp, #8
 80013e4:	af00      	add	r7, sp, #0
	// check if the USART2 receive interrupt flag was set
	if( USART_GetITStatus(USART2, USART_IT_RXNE))
 80013e6:	f240 5125 	movw	r1, #1317	; 0x525
 80013ea:	4827      	ldr	r0, [pc, #156]	; (8001488 <USART2_IRQHandler+0xa8>)
 80013ec:	f7ff fd43 	bl	8000e76 <USART_GetITStatus>
 80013f0:	4603      	mov	r3, r0
 80013f2:	2b00      	cmp	r3, #0
 80013f4:	d044      	beq.n	8001480 <USART2_IRQHandler+0xa0>
	{
		USART_ClearITPendingBit(USART2, USART_IT_RXNE);
 80013f6:	f240 5125 	movw	r1, #1317	; 0x525
 80013fa:	4823      	ldr	r0, [pc, #140]	; (8001488 <USART2_IRQHandler+0xa8>)
 80013fc:	f7ff fd96 	bl	8000f2c <USART_ClearITPendingBit>
		int i;
		char c = USART2->DR & 0xFF;
 8001400:	4b21      	ldr	r3, [pc, #132]	; (8001488 <USART2_IRQHandler+0xa8>)
 8001402:	889b      	ldrh	r3, [r3, #4]
 8001404:	b29b      	uxth	r3, r3
 8001406:	70fb      	strb	r3, [r7, #3]
//		LCD_XY(10,1);
//		LCD_put("UART:   ");
//		LCD_XY(15,1);
//		LCD_putchar(c);

		if(c > 64 && c < 91)
 8001408:	78fb      	ldrb	r3, [r7, #3]
 800140a:	2b40      	cmp	r3, #64	; 0x40
 800140c:	d905      	bls.n	800141a <USART2_IRQHandler+0x3a>
 800140e:	78fb      	ldrb	r3, [r7, #3]
 8001410:	2b5a      	cmp	r3, #90	; 0x5a
 8001412:	d802      	bhi.n	800141a <USART2_IRQHandler+0x3a>
			c += 32;
 8001414:	78fb      	ldrb	r3, [r7, #3]
 8001416:	3320      	adds	r3, #32
 8001418:	70fb      	strb	r3, [r7, #3]
		if(c <= 13)
 800141a:	78fb      	ldrb	r3, [r7, #3]
 800141c:	2b0d      	cmp	r3, #13
 800141e:	d81d      	bhi.n	800145c <USART2_IRQHandler+0x7c>
		{
			for(i=0;i<charcounter;i++)
 8001420:	2300      	movs	r3, #0
 8001422:	607b      	str	r3, [r7, #4]
 8001424:	e00b      	b.n	800143e <USART2_IRQHandler+0x5e>
			{
				USART_SendData(USART2, string[i]); // Echo Char
 8001426:	4a19      	ldr	r2, [pc, #100]	; (800148c <USART2_IRQHandler+0xac>)
 8001428:	687b      	ldr	r3, [r7, #4]
 800142a:	4413      	add	r3, r2
 800142c:	781b      	ldrb	r3, [r3, #0]
 800142e:	b29b      	uxth	r3, r3
 8001430:	4619      	mov	r1, r3
 8001432:	4815      	ldr	r0, [pc, #84]	; (8001488 <USART2_IRQHandler+0xa8>)
 8001434:	f7ff fcf1 	bl	8000e1a <USART_SendData>
			for(i=0;i<charcounter;i++)
 8001438:	687b      	ldr	r3, [r7, #4]
 800143a:	3301      	adds	r3, #1
 800143c:	607b      	str	r3, [r7, #4]
 800143e:	4b14      	ldr	r3, [pc, #80]	; (8001490 <USART2_IRQHandler+0xb0>)
 8001440:	681b      	ldr	r3, [r3, #0]
 8001442:	687a      	ldr	r2, [r7, #4]
 8001444:	429a      	cmp	r2, r3
 8001446:	dbee      	blt.n	8001426 <USART2_IRQHandler+0x46>
			}
			charcounter = 0;
 8001448:	4b11      	ldr	r3, [pc, #68]	; (8001490 <USART2_IRQHandler+0xb0>)
 800144a:	2200      	movs	r2, #0
 800144c:	601a      	str	r2, [r3, #0]
			USART_SendData(USART2, c); // Echo Char
 800144e:	78fb      	ldrb	r3, [r7, #3]
 8001450:	b29b      	uxth	r3, r3
 8001452:	4619      	mov	r1, r3
 8001454:	480c      	ldr	r0, [pc, #48]	; (8001488 <USART2_IRQHandler+0xa8>)
 8001456:	f7ff fce0 	bl	8000e1a <USART_SendData>
 800145a:	e009      	b.n	8001470 <USART2_IRQHandler+0x90>
		}
		else
		{
			string[charcounter] = c;
 800145c:	4b0c      	ldr	r3, [pc, #48]	; (8001490 <USART2_IRQHandler+0xb0>)
 800145e:	681b      	ldr	r3, [r3, #0]
 8001460:	490a      	ldr	r1, [pc, #40]	; (800148c <USART2_IRQHandler+0xac>)
 8001462:	78fa      	ldrb	r2, [r7, #3]
 8001464:	54ca      	strb	r2, [r1, r3]
			charcounter++;
 8001466:	4b0a      	ldr	r3, [pc, #40]	; (8001490 <USART2_IRQHandler+0xb0>)
 8001468:	681b      	ldr	r3, [r3, #0]
 800146a:	3301      	adds	r3, #1
 800146c:	4a08      	ldr	r2, [pc, #32]	; (8001490 <USART2_IRQHandler+0xb0>)
 800146e:	6013      	str	r3, [r2, #0]
		}


		while (USART_GetFlagStatus(USART2, USART_FLAG_TC) == RESET); // Wait for Empty
 8001470:	bf00      	nop
 8001472:	2140      	movs	r1, #64	; 0x40
 8001474:	4804      	ldr	r0, [pc, #16]	; (8001488 <USART2_IRQHandler+0xa8>)
 8001476:	f7ff fce2 	bl	8000e3e <USART_GetFlagStatus>
 800147a:	4603      	mov	r3, r0
 800147c:	2b00      	cmp	r3, #0
 800147e:	d0f8      	beq.n	8001472 <USART2_IRQHandler+0x92>

	}
}
 8001480:	bf00      	nop
 8001482:	3708      	adds	r7, #8
 8001484:	46bd      	mov	sp, r7
 8001486:	bd80      	pop	{r7, pc}
 8001488:	40004400 	.word	0x40004400
 800148c:	20012d1c 	.word	0x20012d1c
 8001490:	2000001c 	.word	0x2000001c

08001494 <main>:
#include "stm32_ub_vga_screen.h"
#include <math.h>
#include "line.h"

int main(void)
{
 8001494:	b580      	push	{r7, lr}
 8001496:	af00      	add	r7, sp, #0
	//  uint32_t n;

	SystemInit(); // System speed to 168MHz
 8001498:	f000 f862 	bl	8001560 <SystemInit>

	UB_VGA_Screen_Init(); // Init VGA-Screen
 800149c:	f7ff fd64 	bl	8000f68 <UB_VGA_Screen_Init>

	UB_VGA_FillScreen(VGA_COL_BLACK);
 80014a0:	2000      	movs	r0, #0
 80014a2:	f7ff fda1 	bl	8000fe8 <UB_VGA_FillScreen>
	//draw_rectangle (0,0,50,50,125);
	draw_bitmap (100, 100);
 80014a6:	2164      	movs	r1, #100	; 0x64
 80014a8:	2064      	movs	r0, #100	; 0x64
 80014aa:	f7fe fe8d 	bl	80001c8 <draw_bitmap>
	for(k=y1;k<=y2;k++)
		UB_VGA_SetPixel(x1,k,50);
	for(l=y1;l<=y2;l++)
		UB_VGA_SetPixel(x2,l,255);
	*/
  while(1)
 80014ae:	e7fe      	b.n	80014ae <main+0x1a>

080014b0 <Reset_Handler>:

    .section  .text.Reset_Handler
  .weak  Reset_Handler
  .type  Reset_Handler, %function
Reset_Handler:  
  ldr   sp, =_estack    /* Atollic update: set stack pointer */
 80014b0:	f8df d034 	ldr.w	sp, [pc, #52]	; 80014e8 <LoopFillZerobss+0x14>

/* Copy the data segment initializers from flash to SRAM */  
  movs  r1, #0
 80014b4:	2100      	movs	r1, #0
  b  LoopCopyDataInit
 80014b6:	e003      	b.n	80014c0 <LoopCopyDataInit>

080014b8 <CopyDataInit>:

CopyDataInit:
  ldr  r3, =_sidata
 80014b8:	4b0c      	ldr	r3, [pc, #48]	; (80014ec <LoopFillZerobss+0x18>)
  ldr  r3, [r3, r1]
 80014ba:	585b      	ldr	r3, [r3, r1]
  str  r3, [r0, r1]
 80014bc:	5043      	str	r3, [r0, r1]
  adds  r1, r1, #4
 80014be:	3104      	adds	r1, #4

080014c0 <LoopCopyDataInit>:
    
LoopCopyDataInit:
  ldr  r0, =_sdata
 80014c0:	480b      	ldr	r0, [pc, #44]	; (80014f0 <LoopFillZerobss+0x1c>)
  ldr  r3, =_edata
 80014c2:	4b0c      	ldr	r3, [pc, #48]	; (80014f4 <LoopFillZerobss+0x20>)
  adds  r2, r0, r1
 80014c4:	1842      	adds	r2, r0, r1
  cmp  r2, r3
 80014c6:	429a      	cmp	r2, r3
  bcc  CopyDataInit
 80014c8:	d3f6      	bcc.n	80014b8 <CopyDataInit>
  ldr  r2, =_sbss
 80014ca:	4a0b      	ldr	r2, [pc, #44]	; (80014f8 <LoopFillZerobss+0x24>)
  b  LoopFillZerobss
 80014cc:	e002      	b.n	80014d4 <LoopFillZerobss>

080014ce <FillZerobss>:
/* Zero fill the bss segment. */  
FillZerobss:
  movs  r3, #0
 80014ce:	2300      	movs	r3, #0
  str  r3, [r2], #4
 80014d0:	f842 3b04 	str.w	r3, [r2], #4

080014d4 <LoopFillZerobss>:
    
LoopFillZerobss:
  ldr  r3, = _ebss
 80014d4:	4b09      	ldr	r3, [pc, #36]	; (80014fc <LoopFillZerobss+0x28>)
  cmp  r2, r3
 80014d6:	429a      	cmp	r2, r3
  bcc  FillZerobss
 80014d8:	d3f9      	bcc.n	80014ce <FillZerobss>

/* Call the clock system intitialization function.*/
  bl  SystemInit   
 80014da:	f000 f841 	bl	8001560 <SystemInit>
/* Call static constructors */
    bl __libc_init_array
 80014de:	f000 f8f1 	bl	80016c4 <__libc_init_array>
/* Call the application's entry point.*/
  bl  main
 80014e2:	f7ff ffd7 	bl	8001494 <main>
  bx  lr    
 80014e6:	4770      	bx	lr
  ldr   sp, =_estack    /* Atollic update: set stack pointer */
 80014e8:	20020000 	.word	0x20020000
  ldr  r3, =_sidata
 80014ec:	08001d84 	.word	0x08001d84
  ldr  r0, =_sdata
 80014f0:	20000000 	.word	0x20000000
  ldr  r3, =_edata
 80014f4:	20000000 	.word	0x20000000
  ldr  r2, =_sbss
 80014f8:	20000000 	.word	0x20000000
  ldr  r3, = _ebss
 80014fc:	20012d80 	.word	0x20012d80

08001500 <ADC_IRQHandler>:
 * @retval None       
*/
    .section  .text.Default_Handler,"ax",%progbits
Default_Handler:
Infinite_Loop:
  b  Infinite_Loop
 8001500:	e7fe      	b.n	8001500 <ADC_IRQHandler>

08001502 <NMI_Handler>:
  * @brief   This function handles NMI exception.
  * @param  None
  * @retval None
  */
void NMI_Handler(void)
{
 8001502:	b480      	push	{r7}
 8001504:	af00      	add	r7, sp, #0
}
 8001506:	bf00      	nop
 8001508:	46bd      	mov	sp, r7
 800150a:	f85d 7b04 	ldr.w	r7, [sp], #4
 800150e:	4770      	bx	lr

08001510 <HardFault_Handler>:
  * @brief  This function handles Hard Fault exception.
  * @param  None
  * @retval None
  */
void HardFault_Handler(void)
{
 8001510:	b480      	push	{r7}
 8001512:	af00      	add	r7, sp, #0
  /* Go to infinite loop when Hard Fault exception occurs */
  while (1)
 8001514:	e7fe      	b.n	8001514 <HardFault_Handler+0x4>

08001516 <MemManage_Handler>:
  * @brief  This function handles Memory Manage exception.
  * @param  None
  * @retval None
  */
void MemManage_Handler(void)
{
 8001516:	b480      	push	{r7}
 8001518:	af00      	add	r7, sp, #0
  /* Go to infinite loop when Memory Manage exception occurs */
  while (1)
 800151a:	e7fe      	b.n	800151a <MemManage_Handler+0x4>

0800151c <BusFault_Handler>:
  * @brief  This function handles Bus Fault exception.
  * @param  None
  * @retval None
  */
void BusFault_Handler(void)
{
 800151c:	b480      	push	{r7}
 800151e:	af00      	add	r7, sp, #0
  /* Go to infinite loop when Bus Fault exception occurs */
  while (1)
 8001520:	e7fe      	b.n	8001520 <BusFault_Handler+0x4>

08001522 <UsageFault_Handler>:
  * @brief  This function handles Usage Fault exception.
  * @param  None
  * @retval None
  */
void UsageFault_Handler(void)
{
 8001522:	b480      	push	{r7}
 8001524:	af00      	add	r7, sp, #0
  /* Go to infinite loop when Usage Fault exception occurs */
  while (1)
 8001526:	e7fe      	b.n	8001526 <UsageFault_Handler+0x4>

08001528 <SVC_Handler>:
  * @brief  This function handles SVCall exception.
  * @param  None
  * @retval None
  */
void SVC_Handler(void)
{
 8001528:	b480      	push	{r7}
 800152a:	af00      	add	r7, sp, #0
}
 800152c:	bf00      	nop
 800152e:	46bd      	mov	sp, r7
 8001530:	f85d 7b04 	ldr.w	r7, [sp], #4
 8001534:	4770      	bx	lr

08001536 <DebugMon_Handler>:
  * @brief  This function handles Debug Monitor exception.
  * @param  None
  * @retval None
  */
void DebugMon_Handler(void)
{
 8001536:	b480      	push	{r7}
 8001538:	af00      	add	r7, sp, #0
}
 800153a:	bf00      	nop
 800153c:	46bd      	mov	sp, r7
 800153e:	f85d 7b04 	ldr.w	r7, [sp], #4
 8001542:	4770      	bx	lr

08001544 <PendSV_Handler>:
  * @brief  This function handles PendSVC exception.
  * @param  None
  * @retval None
  */
void PendSV_Handler(void)
{
 8001544:	b480      	push	{r7}
 8001546:	af00      	add	r7, sp, #0
}
 8001548:	bf00      	nop
 800154a:	46bd      	mov	sp, r7
 800154c:	f85d 7b04 	ldr.w	r7, [sp], #4
 8001550:	4770      	bx	lr

08001552 <SysTick_Handler>:
  * @brief  This function handles SysTick Handler.
  * @param  None
  * @retval None
  */
void SysTick_Handler(void)
{
 8001552:	b480      	push	{r7}
 8001554:	af00      	add	r7, sp, #0
/*  TimingDelay_Decrement(); */
}
 8001556:	bf00      	nop
 8001558:	46bd      	mov	sp, r7
 800155a:	f85d 7b04 	ldr.w	r7, [sp], #4
 800155e:	4770      	bx	lr

08001560 <SystemInit>:
  *         SystemFrequency variable.
  * @param  None
  * @retval None
  */
void SystemInit(void)
{
 8001560:	b580      	push	{r7, lr}
 8001562:	af00      	add	r7, sp, #0
  /* FPU settings ------------------------------------------------------------*/
  #if (__FPU_PRESENT == 1) && (__FPU_USED == 1)
    SCB->CPACR |= ((3UL << 10*2)|(3UL << 11*2));  /* set CP10 and CP11 Full Access */
 8001564:	4a16      	ldr	r2, [pc, #88]	; (80015c0 <SystemInit+0x60>)
 8001566:	4b16      	ldr	r3, [pc, #88]	; (80015c0 <SystemInit+0x60>)
 8001568:	f8d3 3088 	ldr.w	r3, [r3, #136]	; 0x88
 800156c:	f443 0370 	orr.w	r3, r3, #15728640	; 0xf00000
 8001570:	f8c2 3088 	str.w	r3, [r2, #136]	; 0x88
  #endif
  /* Reset the RCC clock configuration to the default reset state ------------*/
  /* Set HSION bit */
  RCC->CR |= (uint32_t)0x00000001;
 8001574:	4a13      	ldr	r2, [pc, #76]	; (80015c4 <SystemInit+0x64>)
 8001576:	4b13      	ldr	r3, [pc, #76]	; (80015c4 <SystemInit+0x64>)
 8001578:	681b      	ldr	r3, [r3, #0]
 800157a:	f043 0301 	orr.w	r3, r3, #1
 800157e:	6013      	str	r3, [r2, #0]

  /* Reset CFGR register */
  RCC->CFGR = 0x00000000;
 8001580:	4b10      	ldr	r3, [pc, #64]	; (80015c4 <SystemInit+0x64>)
 8001582:	2200      	movs	r2, #0
 8001584:	609a      	str	r2, [r3, #8]

  /* Reset HSEON, CSSON and PLLON bits */
  RCC->CR &= (uint32_t)0xFEF6FFFF;
 8001586:	4a0f      	ldr	r2, [pc, #60]	; (80015c4 <SystemInit+0x64>)
 8001588:	4b0e      	ldr	r3, [pc, #56]	; (80015c4 <SystemInit+0x64>)
 800158a:	681b      	ldr	r3, [r3, #0]
 800158c:	f023 7384 	bic.w	r3, r3, #17301504	; 0x1080000
 8001590:	f423 3380 	bic.w	r3, r3, #65536	; 0x10000
 8001594:	6013      	str	r3, [r2, #0]

  /* Reset PLLCFGR register */
  RCC->PLLCFGR = 0x24003010;
 8001596:	4b0b      	ldr	r3, [pc, #44]	; (80015c4 <SystemInit+0x64>)
 8001598:	4a0b      	ldr	r2, [pc, #44]	; (80015c8 <SystemInit+0x68>)
 800159a:	605a      	str	r2, [r3, #4]

  /* Reset HSEBYP bit */
  RCC->CR &= (uint32_t)0xFFFBFFFF;
 800159c:	4a09      	ldr	r2, [pc, #36]	; (80015c4 <SystemInit+0x64>)
 800159e:	4b09      	ldr	r3, [pc, #36]	; (80015c4 <SystemInit+0x64>)
 80015a0:	681b      	ldr	r3, [r3, #0]
 80015a2:	f423 2380 	bic.w	r3, r3, #262144	; 0x40000
 80015a6:	6013      	str	r3, [r2, #0]

  /* Disable all interrupts */
  RCC->CIR = 0x00000000;
 80015a8:	4b06      	ldr	r3, [pc, #24]	; (80015c4 <SystemInit+0x64>)
 80015aa:	2200      	movs	r2, #0
 80015ac:	60da      	str	r2, [r3, #12]
  SystemInit_ExtMemCtl(); 
#endif /* DATA_IN_ExtSRAM */
         
  /* Configure the System clock source, PLL Multiplier and Divider factors, 
     AHB/APBx prescalers and Flash settings ----------------------------------*/
  SetSysClock();
 80015ae:	f000 f80d 	bl	80015cc <SetSysClock>

  /* Configure the Vector Table location add offset address ------------------*/
#ifdef VECT_TAB_SRAM
  SCB->VTOR = SRAM_BASE | VECT_TAB_OFFSET; /* Vector Table Relocation in Internal SRAM */
#else
  SCB->VTOR = FLASH_BASE | VECT_TAB_OFFSET; /* Vector Table Relocation in Internal FLASH */
 80015b2:	4b03      	ldr	r3, [pc, #12]	; (80015c0 <SystemInit+0x60>)
 80015b4:	f04f 6200 	mov.w	r2, #134217728	; 0x8000000
 80015b8:	609a      	str	r2, [r3, #8]
#endif
}
 80015ba:	bf00      	nop
 80015bc:	bd80      	pop	{r7, pc}
 80015be:	bf00      	nop
 80015c0:	e000ed00 	.word	0xe000ed00
 80015c4:	40023800 	.word	0x40023800
 80015c8:	24003010 	.word	0x24003010

080015cc <SetSysClock>:
  *         is reset to the default reset state (done in SystemInit() function).   
  * @param  None
  * @retval None
  */
static void SetSysClock(void)
{
 80015cc:	b480      	push	{r7}
 80015ce:	b083      	sub	sp, #12
 80015d0:	af00      	add	r7, sp, #0
/******************************************************************************/
/*            PLL (clocked by HSE) used as System clock source                */
/******************************************************************************/
  __IO uint32_t StartUpCounter = 0, HSEStatus = 0;
 80015d2:	2300      	movs	r3, #0
 80015d4:	607b      	str	r3, [r7, #4]
 80015d6:	2300      	movs	r3, #0
 80015d8:	603b      	str	r3, [r7, #0]
  
  /* Enable HSE */
  RCC->CR |= ((uint32_t)RCC_CR_HSEON);
 80015da:	4a36      	ldr	r2, [pc, #216]	; (80016b4 <SetSysClock+0xe8>)
 80015dc:	4b35      	ldr	r3, [pc, #212]	; (80016b4 <SetSysClock+0xe8>)
 80015de:	681b      	ldr	r3, [r3, #0]
 80015e0:	f443 3380 	orr.w	r3, r3, #65536	; 0x10000
 80015e4:	6013      	str	r3, [r2, #0]
 
  /* Wait till HSE is ready and if Time out is reached exit */
  do
  {
    HSEStatus = RCC->CR & RCC_CR_HSERDY;
 80015e6:	4b33      	ldr	r3, [pc, #204]	; (80016b4 <SetSysClock+0xe8>)
 80015e8:	681b      	ldr	r3, [r3, #0]
 80015ea:	f403 3300 	and.w	r3, r3, #131072	; 0x20000
 80015ee:	603b      	str	r3, [r7, #0]
    StartUpCounter++;
 80015f0:	687b      	ldr	r3, [r7, #4]
 80015f2:	3301      	adds	r3, #1
 80015f4:	607b      	str	r3, [r7, #4]
  } while((HSEStatus == 0) && (StartUpCounter != HSE_STARTUP_TIMEOUT));
 80015f6:	683b      	ldr	r3, [r7, #0]
 80015f8:	2b00      	cmp	r3, #0
 80015fa:	d103      	bne.n	8001604 <SetSysClock+0x38>
 80015fc:	687b      	ldr	r3, [r7, #4]
 80015fe:	f5b3 6fa0 	cmp.w	r3, #1280	; 0x500
 8001602:	d1f0      	bne.n	80015e6 <SetSysClock+0x1a>

  if ((RCC->CR & RCC_CR_HSERDY) != RESET)
 8001604:	4b2b      	ldr	r3, [pc, #172]	; (80016b4 <SetSysClock+0xe8>)
 8001606:	681b      	ldr	r3, [r3, #0]
 8001608:	f403 3300 	and.w	r3, r3, #131072	; 0x20000
 800160c:	2b00      	cmp	r3, #0
 800160e:	d002      	beq.n	8001616 <SetSysClock+0x4a>
  {
    HSEStatus = (uint32_t)0x01;
 8001610:	2301      	movs	r3, #1
 8001612:	603b      	str	r3, [r7, #0]
 8001614:	e001      	b.n	800161a <SetSysClock+0x4e>
  }
  else
  {
    HSEStatus = (uint32_t)0x00;
 8001616:	2300      	movs	r3, #0
 8001618:	603b      	str	r3, [r7, #0]
  }

  if (HSEStatus == (uint32_t)0x01)
 800161a:	683b      	ldr	r3, [r7, #0]
 800161c:	2b01      	cmp	r3, #1
 800161e:	d142      	bne.n	80016a6 <SetSysClock+0xda>
  {
    /* Select regulator voltage output Scale 1 mode, System frequency up to 168 MHz */
    RCC->APB1ENR |= RCC_APB1ENR_PWREN;
 8001620:	4a24      	ldr	r2, [pc, #144]	; (80016b4 <SetSysClock+0xe8>)
 8001622:	4b24      	ldr	r3, [pc, #144]	; (80016b4 <SetSysClock+0xe8>)
 8001624:	6c1b      	ldr	r3, [r3, #64]	; 0x40
 8001626:	f043 5380 	orr.w	r3, r3, #268435456	; 0x10000000
 800162a:	6413      	str	r3, [r2, #64]	; 0x40
    PWR->CR |= PWR_CR_VOS;
 800162c:	4a22      	ldr	r2, [pc, #136]	; (80016b8 <SetSysClock+0xec>)
 800162e:	4b22      	ldr	r3, [pc, #136]	; (80016b8 <SetSysClock+0xec>)
 8001630:	681b      	ldr	r3, [r3, #0]
 8001632:	f443 4340 	orr.w	r3, r3, #49152	; 0xc000
 8001636:	6013      	str	r3, [r2, #0]

    /* HCLK = SYSCLK / 1*/
    RCC->CFGR |= RCC_CFGR_HPRE_DIV1;
 8001638:	4a1e      	ldr	r2, [pc, #120]	; (80016b4 <SetSysClock+0xe8>)
 800163a:	4b1e      	ldr	r3, [pc, #120]	; (80016b4 <SetSysClock+0xe8>)
 800163c:	689b      	ldr	r3, [r3, #8]
 800163e:	6093      	str	r3, [r2, #8]
      
    /* PCLK2 = HCLK / 2*/
    RCC->CFGR |= RCC_CFGR_PPRE2_DIV2;
 8001640:	4a1c      	ldr	r2, [pc, #112]	; (80016b4 <SetSysClock+0xe8>)
 8001642:	4b1c      	ldr	r3, [pc, #112]	; (80016b4 <SetSysClock+0xe8>)
 8001644:	689b      	ldr	r3, [r3, #8]
 8001646:	f443 4300 	orr.w	r3, r3, #32768	; 0x8000
 800164a:	6093      	str	r3, [r2, #8]
    
    /* PCLK1 = HCLK / 4*/
    RCC->CFGR |= RCC_CFGR_PPRE1_DIV4;
 800164c:	4a19      	ldr	r2, [pc, #100]	; (80016b4 <SetSysClock+0xe8>)
 800164e:	4b19      	ldr	r3, [pc, #100]	; (80016b4 <SetSysClock+0xe8>)
 8001650:	689b      	ldr	r3, [r3, #8]
 8001652:	f443 53a0 	orr.w	r3, r3, #5120	; 0x1400
 8001656:	6093      	str	r3, [r2, #8]

    /* Configure the main PLL */
    RCC->PLLCFGR = PLL_M | (PLL_N << 6) | (((PLL_P >> 1) -1) << 16) |
 8001658:	4b16      	ldr	r3, [pc, #88]	; (80016b4 <SetSysClock+0xe8>)
 800165a:	4a18      	ldr	r2, [pc, #96]	; (80016bc <SetSysClock+0xf0>)
 800165c:	605a      	str	r2, [r3, #4]
                   (RCC_PLLCFGR_PLLSRC_HSE) | (PLL_Q << 24);

    /* Enable the main PLL */
    RCC->CR |= RCC_CR_PLLON;
 800165e:	4a15      	ldr	r2, [pc, #84]	; (80016b4 <SetSysClock+0xe8>)
 8001660:	4b14      	ldr	r3, [pc, #80]	; (80016b4 <SetSysClock+0xe8>)
 8001662:	681b      	ldr	r3, [r3, #0]
 8001664:	f043 7380 	orr.w	r3, r3, #16777216	; 0x1000000
 8001668:	6013      	str	r3, [r2, #0]

    /* Wait till the main PLL is ready */
    while((RCC->CR & RCC_CR_PLLRDY) == 0)
 800166a:	bf00      	nop
 800166c:	4b11      	ldr	r3, [pc, #68]	; (80016b4 <SetSysClock+0xe8>)
 800166e:	681b      	ldr	r3, [r3, #0]
 8001670:	f003 7300 	and.w	r3, r3, #33554432	; 0x2000000
 8001674:	2b00      	cmp	r3, #0
 8001676:	d0f9      	beq.n	800166c <SetSysClock+0xa0>
    {
    }
   
    /* Configure Flash prefetch, Instruction cache, Data cache and wait state */
    FLASH->ACR = FLASH_ACR_PRFTEN |FLASH_ACR_ICEN |FLASH_ACR_DCEN |FLASH_ACR_LATENCY_5WS;
 8001678:	4b11      	ldr	r3, [pc, #68]	; (80016c0 <SetSysClock+0xf4>)
 800167a:	f240 7205 	movw	r2, #1797	; 0x705
 800167e:	601a      	str	r2, [r3, #0]

    /* Select the main PLL as system clock source */
    RCC->CFGR &= (uint32_t)((uint32_t)~(RCC_CFGR_SW));
 8001680:	4a0c      	ldr	r2, [pc, #48]	; (80016b4 <SetSysClock+0xe8>)
 8001682:	4b0c      	ldr	r3, [pc, #48]	; (80016b4 <SetSysClock+0xe8>)
 8001684:	689b      	ldr	r3, [r3, #8]
 8001686:	f023 0303 	bic.w	r3, r3, #3
 800168a:	6093      	str	r3, [r2, #8]
    RCC->CFGR |= RCC_CFGR_SW_PLL;
 800168c:	4a09      	ldr	r2, [pc, #36]	; (80016b4 <SetSysClock+0xe8>)
 800168e:	4b09      	ldr	r3, [pc, #36]	; (80016b4 <SetSysClock+0xe8>)
 8001690:	689b      	ldr	r3, [r3, #8]
 8001692:	f043 0302 	orr.w	r3, r3, #2
 8001696:	6093      	str	r3, [r2, #8]

    /* Wait till the main PLL is used as system clock source */
    while ((RCC->CFGR & (uint32_t)RCC_CFGR_SWS ) != RCC_CFGR_SWS_PLL);
 8001698:	bf00      	nop
 800169a:	4b06      	ldr	r3, [pc, #24]	; (80016b4 <SetSysClock+0xe8>)
 800169c:	689b      	ldr	r3, [r3, #8]
 800169e:	f003 030c 	and.w	r3, r3, #12
 80016a2:	2b08      	cmp	r3, #8
 80016a4:	d1f9      	bne.n	800169a <SetSysClock+0xce>
  else
  { /* If HSE fails to start-up, the application will have wrong clock
         configuration. User can add here some code to deal with this error */
  }

}
 80016a6:	bf00      	nop
 80016a8:	370c      	adds	r7, #12
 80016aa:	46bd      	mov	sp, r7
 80016ac:	f85d 7b04 	ldr.w	r7, [sp], #4
 80016b0:	4770      	bx	lr
 80016b2:	bf00      	nop
 80016b4:	40023800 	.word	0x40023800
 80016b8:	40007000 	.word	0x40007000
 80016bc:	07405419 	.word	0x07405419
 80016c0:	40023c00 	.word	0x40023c00

080016c4 <__libc_init_array>:
 80016c4:	b570      	push	{r4, r5, r6, lr}
 80016c6:	4e0d      	ldr	r6, [pc, #52]	; (80016fc <__libc_init_array+0x38>)
 80016c8:	4c0d      	ldr	r4, [pc, #52]	; (8001700 <__libc_init_array+0x3c>)
 80016ca:	1ba4      	subs	r4, r4, r6
 80016cc:	10a4      	asrs	r4, r4, #2
 80016ce:	2500      	movs	r5, #0
 80016d0:	42a5      	cmp	r5, r4
 80016d2:	d109      	bne.n	80016e8 <__libc_init_array+0x24>
 80016d4:	4e0b      	ldr	r6, [pc, #44]	; (8001704 <__libc_init_array+0x40>)
 80016d6:	4c0c      	ldr	r4, [pc, #48]	; (8001708 <__libc_init_array+0x44>)
 80016d8:	f000 f824 	bl	8001724 <_init>
 80016dc:	1ba4      	subs	r4, r4, r6
 80016de:	10a4      	asrs	r4, r4, #2
 80016e0:	2500      	movs	r5, #0
 80016e2:	42a5      	cmp	r5, r4
 80016e4:	d105      	bne.n	80016f2 <__libc_init_array+0x2e>
 80016e6:	bd70      	pop	{r4, r5, r6, pc}
 80016e8:	f856 3025 	ldr.w	r3, [r6, r5, lsl #2]
 80016ec:	4798      	blx	r3
 80016ee:	3501      	adds	r5, #1
 80016f0:	e7ee      	b.n	80016d0 <__libc_init_array+0xc>
 80016f2:	f856 3025 	ldr.w	r3, [r6, r5, lsl #2]
 80016f6:	4798      	blx	r3
 80016f8:	3501      	adds	r5, #1
 80016fa:	e7f2      	b.n	80016e2 <__libc_init_array+0x1e>
 80016fc:	08001d7c 	.word	0x08001d7c
 8001700:	08001d7c 	.word	0x08001d7c
 8001704:	08001d7c 	.word	0x08001d7c
 8001708:	08001d80 	.word	0x08001d80

0800170c <memcpy>:
 800170c:	b510      	push	{r4, lr}
 800170e:	1e43      	subs	r3, r0, #1
 8001710:	440a      	add	r2, r1
 8001712:	4291      	cmp	r1, r2
 8001714:	d100      	bne.n	8001718 <memcpy+0xc>
 8001716:	bd10      	pop	{r4, pc}
 8001718:	f811 4b01 	ldrb.w	r4, [r1], #1
 800171c:	f803 4f01 	strb.w	r4, [r3, #1]!
 8001720:	e7f7      	b.n	8001712 <memcpy+0x6>
	...

08001724 <_init>:
 8001724:	b5f8      	push	{r3, r4, r5, r6, r7, lr}
 8001726:	bf00      	nop
 8001728:	bcf8      	pop	{r3, r4, r5, r6, r7}
 800172a:	bc08      	pop	{r3}
 800172c:	469e      	mov	lr, r3
 800172e:	4770      	bx	lr

08001730 <_fini>:
 8001730:	b5f8      	push	{r3, r4, r5, r6, r7, lr}
 8001732:	bf00      	nop
 8001734:	bcf8      	pop	{r3, r4, r5, r6, r7}
 8001736:	bc08      	pop	{r3}
 8001738:	469e      	mov	lr, r3
 800173a:	4770      	bx	lr
